Certificate:
    Data:
        Version: 3 (0x2)
        Serial Number:
            8b:12:f2:d7:05:5a:b6:5c
    Signature Algorithm: sha256WithRSAEncryption
        Issuer: C=ES, ST=GI, O=SRDSI, OU=LABS, CN=CA-SRDSI
        Validity
            Not Before: Jul 24 20:37:12 2015 GMT
            Not After : Jul 23 20:37:12 2016 GMT
        Subject: C=ES, ST=GI, O=SRDSI, OU=LABS, CN=user1/emailAddress=user1@srdsi.lab
        Subject Public Key Info:
            Public Key Algorithm: rsaEncryption
                Public-Key: (2048 bit)
                Modulus:
                    00:c0:80:cb:b2:49:ef:5d:3c:68:cd:24:4a:5d:c7:
                    60:e7:dc:6d:9f:be:8c:45:a7:7a:a8:08:34:05:a2:
                    cc:8f:e9:ab:17:73:dd:8b:58:21:15:dd:98:c4:fb:
                    45:d5:aa:b0:ad:36:c2:77:eb:dc:fa:a4:78:98:9f:
                    ce:3e:7b:b6:f6:a0:63:14:b9:d0:1d:54:b2:fa:27:
                    42:0a:83:00:e4:1e:62:26:5d:45:b3:72:07:a1:9c:
                    50:6a:fd:0a:01:d5:3a:62:d5:f1:80:55:32:e0:ee:
                    23:f8:9e:51:0e:11:3f:10:7a:96:7f:39:76:e7:3d:
                    32:08:77:23:42:d3:fe:fa:d7:b1:c0:e1:49:ed:f4:
                    3f:a7:97:81:6b:76:f3:82:03:3c:f7:d2:42:f4:26:
                    2b:d8:0e:3e:d7:8e:35:1e:1f:99:a4:09:6b:79:9c:
                    eb:a3:73:60:23:25:28:1a:83:d5:c9:d0:24:0e:0a:
                    2f:8b:97:2f:20:d0:d6:bc:b7:7c:37:f5:b5:31:ad:
                    15:f4:6f:9a:16:e5:3d:6b:ee:dd:8d:b4:94:16:32:
                    79:5c:4a:f3:d2:b5:a5:89:df:09:8f:1d:90:ca:41:
                    83:45:8f:85:6e:2b:0f:9e:9a:78:69:6a:e7:30:78:
                    f0:56:d6:c6:61:b0:c7:fe:f0:d4:61:00:be:65:c6:
                    44:6f
                Exponent: 65537 (0x10001)
        X509v3 extensions:
            Authority Information Access: 
                CA Issuers - URI:http://ca-root.srdsi.lab/ca-root.crt
                OCSP - URI:http://ocsp.srdsi.lab:9999

            X509v3 Authority Key Identifier: 
                keyid:7A:F0:03:6B:4C:D1:01:32:8D:64:88:5A:3F:91:49:63:85:2A:0D:C5

            X509v3 Basic Constraints: critical
                CA:FALSE
            X509v3 CRL Distribution Points: 

                Full Name:
                  URI:http://ca-root.srdsi.lab/ca-root.crl

            X509v3 Extended Key Usage: 
                TLS Web Client Authentication
            X509v3 Key Usage: critical
                Digital Signature
            X509v3 Subject Key Identifier: 
                19:C0:13:23:40:31:5C:44:F5:4B:CD:D2:E5:1C:07:7C:47:6E:50:7B
    Signature Algorithm: sha256WithRSAEncryption
         74:73:77:39:46:9f:55:7e:cd:91:d0:07:fa:23:00:6f:af:dc:
         28:0a:e6:c9:92:24:a2:ff:24:ce:a2:c0:bc:3e:6b:3a:3a:e0:
         33:bd:fb:16:87:37:97:2c:9f:f9:e8:3d:51:ac:e8:94:be:fc:
         d4:3a:99:ee:af:a1:28:64:58:f7:0e:51:b6:75:55:22:76:c1:
         47:1c:4f:fe:75:38:35:43:b9:6b:e8:4b:74:30:d9:ff:90:95:
         65:59:3b:4e:36:8e:d8:09:31:9f:62:3f:6f:a2:bb:80:e4:0c:
         eb:a3:8b:98:da:d5:a7:f6:00:f6:e0:65:b6:5c:c9:c4:9a:38:
         31:04:56:2a:67:51:aa:1f:df:f3:45:f4:b6:f3:09:67:ba:73:
         dd:88:ac:3d:9f:9d:36:2b:28:b3:0e:b4:d9:23:19:ee:4f:6e:
         84:3d:0c:8d:cf:69:3a:5d:bb:94:3c:00:69:29:ac:f7:52:b6:
         63:e3:8b:07:60:51:50:86:f6:e8:78:e9:64:f0:3e:76:d2:e1:
         e6:98:2e:c2:68:82:83:59:4d:b1:fe:7f:fc:8b:7f:91:c5:e8:
         f6:19:60:6d:e1:a4:51:80:0e:b2:03:81:b6:5f:9e:63:f9:92:
         4a:07:08:bb:f8:f3:34:37:cc:b0:4c:7c:3e:f2:b0:98:3c:99:
         73:16:7f:51
-----BEGIN CERTIFICATE-----
MIIEUjCCAzqgAwIBAgIJAIsS8tcFWrZcMA0GCSqGSIb3DQEBCwUAMEwxCzAJBgNV
BAYTAkVTMQswCQYDVQQIDAJHSTEOMAwGA1UECgwFU1JEU0kxDTALBgNVBAsMBExB
QlMxETAPBgNVBAMMCENBLVNSRFNJMB4XDTE1MDcyNDIwMzcxMloXDTE2MDcyMzIw
MzcxMlowaTELMAkGA1UEBhMCRVMxCzAJBgNVBAgMAkdJMQ4wDAYDVQQKDAVTUkRT
STENMAsGA1UECwwETEFCUzEOMAwGA1UEAwwFdXNlcjExHjAcBgkqhkiG9w0BCQEW
D3VzZXIxQHNyZHNpLmxhYjCCASIwDQYJKoZIhvcNAQEBBQADggEPADCCAQoCggEB
AMCAy7JJ7108aM0kSl3HYOfcbZ++jEWneqgINAWizI/pqxdz3YtYIRXdmMT7RdWq
sK02wnfr3PqkeJifzj57tvagYxS50B1UsvonQgqDAOQeYiZdRbNyB6GcUGr9CgHV
OmLV8YBVMuDuI/ieUQ4RPxB6ln85duc9Mgh3I0LT/vrXscDhSe30P6eXgWt284ID
PPfSQvQmK9gOPteONR4fmaQJa3mc66NzYCMlKBqD1cnQJA4KL4uXLyDQ1ry3fDf1
tTGtFfRvmhblPWvu3Y20lBYyeVxK89K1pYnfCY8dkMpBg0WPhW4rD56aeGlq5zB4
8FbWxmGwx/7w1GEAvmXGRG8CAwEAAaOCARgwggEUMGgGCCsGAQUFBwEBBFwwWjAw
BggrBgEFBQcwAoYkaHR0cDovL2NhLXJvb3Quc3Jkc2kubGFiL2NhLXJvb3QuY3J0
MCYGCCsGAQUFBzABhhpodHRwOi8vb2NzcC5zcmRzaS5sYWI6OTk5OTAfBgNVHSME
GDAWgBR68ANrTNEBMo1kiFo/kUljhSoNxTAMBgNVHRMBAf8EAjAAMDUGA1UdHwQu
MCwwKqAooCaGJGh0dHA6Ly9jYS1yb290LnNyZHNpLmxhYi9jYS1yb290LmNybDAT
BgNVHSUEDDAKBggrBgEFBQcDAjAOBgNVHQ8BAf8EBAMCB4AwHQYDVR0OBBYEFBnA
EyNAMVxE9UvN0uUcB3xHblB7MA0GCSqGSIb3DQEBCwUAA4IBAQB0c3c5Rp9Vfs2R
0Af6IwBvr9woCubJkiSi/yTOosC8Pms6OuAzvfsWhzeXLJ/56D1RrOiUvvzUOpnu
r6EoZFj3DlG2dVUidsFHHE/+dTg1Q7lr6Et0MNn/kJVlWTtONo7YCTGfYj9voruA
5Azro4uY2tWn9gD24GW2XMnEmjgxBFYqZ1GqH9/zRfS28wlnunPdiKw9n502Kyiz
DrTZIxnuT26EPQyNz2k6XbuUPABpKaz3UrZj44sHYFFQhvboeOlk8D520uHmmC7C
aIKDWU2x/n/8i3+Rxej2GWBt4aRRgA6yA4G2X55j+ZJKBwi7+PM0N8ywTHw+8rCY
PJlzFn9R
-----END CERTIFICATE-----
