Certificate:
    Data:
        Version: 3 (0x2)
        Serial Number:
            8b:12:f2:d7:05:5a:b6:59
    Signature Algorithm: sha256WithRSAEncryption
        Issuer: C=ES, ST=GI, O=SRDSI, OU=LABS, CN=CA-SRDSI
        Validity
            Not Before: Jul 24 18:34:24 2015 GMT
            Not After : Jul 23 18:34:24 2016 GMT
        Subject: C=ES, ST=GI, O=SRDSI, OU=LABS, CN=CA-SRDSI
        Subject Public Key Info:
            Public Key Algorithm: rsaEncryption
                Public-Key: (2048 bit)
                Modulus:
                    00:a2:39:f9:f5:c5:21:48:71:1f:01:b6:f5:73:0a:
                    37:9e:99:d9:9e:da:c8:ef:c6:ca:ba:7c:62:4a:db:
                    30:bc:ee:00:1a:ee:8b:63:63:09:c7:47:63:46:25:
                    e5:6b:78:b2:c1:4f:a8:34:91:7e:f1:d3:d6:a3:cd:
                    18:5a:3e:ab:ba:db:42:54:84:b5:c3:56:80:1c:28:
                    9a:b1:0c:e6:a8:67:fd:4e:0c:63:01:37:d7:4d:94:
                    8e:6d:66:90:16:93:55:5a:53:80:05:c4:e9:f2:10:
                    9b:ee:46:df:1d:45:de:87:e4:32:89:f1:73:8f:00:
                    0e:ea:e4:b0:95:48:87:67:1d:c0:ac:08:1b:9d:fb:
                    cc:eb:3b:56:f8:70:6d:19:3b:6d:d5:48:8f:7b:7a:
                    77:65:cf:1f:fc:25:c0:14:60:95:19:bb:f4:94:95:
                    eb:aa:90:37:9c:47:a9:2e:0b:82:5e:e2:f4:32:90:
                    d8:b0:7d:26:96:d2:8b:e0:e6:3c:99:8c:65:e8:59:
                    6e:b4:86:09:a1:00:fa:da:8b:74:ef:7c:4f:87:da:
                    dc:bc:3d:3d:93:62:23:66:c9:8f:06:04:53:64:5c:
                    5d:ef:7d:11:db:ec:f2:cd:4e:1f:2b:2e:e7:88:a7:
                    ac:dd:03:8d:8d:50:9c:93:0d:25:0d:aa:73:88:5e:
                    7d:cd
                Exponent: 65537 (0x10001)
        X509v3 extensions:
            X509v3 Basic Constraints: critical
                CA:TRUE
            X509v3 Key Usage: critical
                Certificate Sign, CRL Sign
            X509v3 Subject Key Identifier: 
                7A:F0:03:6B:4C:D1:01:32:8D:64:88:5A:3F:91:49:63:85:2A:0D:C5
    Signature Algorithm: sha256WithRSAEncryption
         95:73:15:74:f7:c2:12:f8:4e:ea:41:b5:d8:82:e6:60:8b:6a:
         bc:4c:5d:51:4a:ce:63:8e:9b:15:ed:56:6e:44:b2:a5:c8:a4:
         0b:b2:8e:87:7b:9f:1f:0a:9a:0e:c7:4e:a1:46:64:10:e6:c6:
         12:f3:b9:34:dc:88:34:ec:35:09:b4:09:6a:88:81:ba:53:58:
         14:38:28:44:c9:3b:4a:37:ce:7e:a3:5f:49:64:f0:b1:94:f8:
         4c:ef:c0:65:b4:9b:9b:89:49:a2:b0:6f:84:4f:46:92:fb:93:
         d6:1e:d5:05:61:da:cb:d2:95:f6:1e:d3:e4:bf:34:3c:5b:9c:
         87:ec:94:f1:97:22:07:e1:63:a4:1d:44:ac:fa:be:12:e0:50:
         15:01:be:45:44:05:4b:db:2f:c7:8d:28:5b:d6:02:b8:2b:68:
         12:2d:6c:23:72:07:df:72:76:a9:05:c7:96:5b:4c:7d:d1:7d:
         79:45:9d:d2:e3:b5:17:43:fc:cc:9e:af:33:36:d9:58:9f:40:
         e1:77:45:42:ce:ba:3e:09:a2:f5:4c:91:73:cd:f9:ab:dd:58:
         51:22:b5:79:3a:45:ba:c0:e9:61:e1:af:e0:03:5d:f0:bb:45:
         c6:2b:ee:25:a3:70:2a:19:22:c1:68:31:89:e2:73:1f:8c:ba:
         c4:36:8c:37
-----BEGIN CERTIFICATE-----
MIIDXTCCAkWgAwIBAgIJAIsS8tcFWrZZMA0GCSqGSIb3DQEBCwUAMEwxCzAJBgNV
BAYTAkVTMQswCQYDVQQIDAJHSTEOMAwGA1UECgwFU1JEU0kxDTALBgNVBAsMBExB
QlMxETAPBgNVBAMMCENBLVNSRFNJMB4XDTE1MDcyNDE4MzQyNFoXDTE2MDcyMzE4
MzQyNFowTDELMAkGA1UEBhMCRVMxCzAJBgNVBAgMAkdJMQ4wDAYDVQQKDAVTUkRT
STENMAsGA1UECwwETEFCUzERMA8GA1UEAwwIQ0EtU1JEU0kwggEiMA0GCSqGSIb3
DQEBAQUAA4IBDwAwggEKAoIBAQCiOfn1xSFIcR8BtvVzCjeemdme2sjvxsq6fGJK
2zC87gAa7otjYwnHR2NGJeVreLLBT6g0kX7x09ajzRhaPqu620JUhLXDVoAcKJqx
DOaoZ/1ODGMBN9dNlI5tZpAWk1VaU4AFxOnyEJvuRt8dRd6H5DKJ8XOPAA7q5LCV
SIdnHcCsCBud+8zrO1b4cG0ZO23VSI97endlzx/8JcAUYJUZu/SUleuqkDecR6ku
C4Je4vQykNiwfSaW0ovg5jyZjGXoWW60hgmhAPrai3TvfE+H2ty8PT2TYiNmyY8G
BFNkXF3vfRHb7PLNTh8rLueIp6zdA42NUJyTDSUNqnOIXn3NAgMBAAGjQjBAMA8G
A1UdEwEB/wQFMAMBAf8wDgYDVR0PAQH/BAQDAgEGMB0GA1UdDgQWBBR68ANrTNEB
Mo1kiFo/kUljhSoNxTANBgkqhkiG9w0BAQsFAAOCAQEAlXMVdPfCEvhO6kG12ILm
YItqvExdUUrOY46bFe1WbkSypcikC7KOh3ufHwqaDsdOoUZkEObGEvO5NNyINOw1
CbQJaoiBulNYFDgoRMk7SjfOfqNfSWTwsZT4TO/AZbSbm4lJorBvhE9GkvuT1h7V
BWHay9KV9h7T5L80PFuch+yU8ZciB+FjpB1ErPq+EuBQFQG+RUQFS9svx40oW9YC
uCtoEi1sI3IH33J2qQXHlltMfdF9eUWd0uO1F0P8zJ6vMzbZWJ9A4XdFQs66Pgmi
9UyRc835q91YUSK1eTpFusDpYeGv4ANd8LtFxivuJaNwKhkiwWgxieJzH4y6xDaM
Nw==
-----END CERTIFICATE-----
