Certificate:
    Data:
        Version: 1 (0x0)
        Serial Number: 7556234559718297954 (0x68dd234c238a1162)
    Signature Algorithm: sha256WithRSAEncryption
        Issuer: C=ES, ST=VI, O=FISS, OU=Seguridad, CN=SecuID
        Validity
            Not Before: Mar  8 17:50:17 2016 GMT
            Not After : Mar  8 17:50:17 2017 GMT
        Subject: C=ES, ST=VI, O=FISS, OU=U, CN=www.sdrsi.lab/emailAddress=a
        Subject Public Key Info:
            Public Key Algorithm: rsaEncryption
                Public-Key: (2048 bit)
                Modulus:
                    00:af:71:e1:ed:6d:34:fa:99:f4:c2:7e:51:34:69:
                    2a:76:01:c9:aa:63:13:d8:6d:5a:1e:a4:7b:8f:f8:
                    d0:c4:e8:c4:72:00:52:b2:65:af:67:36:4f:5a:d4:
                    44:20:e3:de:3c:88:5d:82:00:6f:77:18:c7:d3:cf:
                    d1:f2:e2:79:47:8e:24:f3:db:5d:5e:d9:80:c9:fb:
                    73:aa:1d:7c:96:85:cd:fb:93:5a:3b:a1:d9:b4:df:
                    db:9b:ee:82:9e:38:82:3d:a1:a8:eb:74:8f:f6:ce:
                    a1:3e:b0:d8:95:1a:6f:2c:31:a0:6a:a9:72:83:74:
                    42:71:d0:e1:ae:63:20:75:a4:02:64:b1:a2:62:5b:
                    4e:2f:65:40:8a:cc:84:65:c8:7d:7e:08:ea:17:df:
                    99:c8:0e:d8:ac:cf:20:2f:e4:fc:c5:17:5d:ee:0a:
                    ea:bd:23:01:78:99:f1:21:02:ed:5e:50:94:23:d1:
                    ce:7c:f5:63:1c:6e:b3:1e:d5:af:99:a8:e1:d4:11:
                    52:f5:8a:2f:5a:ea:67:0e:14:1e:2e:5c:96:9d:04:
                    c1:83:ae:8a:2e:01:6e:0e:97:c1:b7:08:b5:93:8d:
                    33:6b:ad:65:9d:e4:da:8e:68:68:b8:ec:be:03:e1:
                    55:e1:55:ea:b2:66:08:7e:9e:a4:f2:93:66:0e:cf:
                    84:ed
                Exponent: 65537 (0x10001)
    Signature Algorithm: sha256WithRSAEncryption
         2d:05:28:6d:6d:57:38:43:6f:e1:93:d5:8b:24:47:75:e2:06:
         fd:80:47:75:50:0f:51:2c:25:a7:33:70:13:1a:70:3b:85:b8:
         1c:ba:e2:56:3e:82:78:8c:95:16:32:af:97:01:4b:01:ca:53:
         2c:35:13:c4:a7:27:e9:67:c2:bb:17:31:c1:d9:15:74:0e:f0:
         ef:a4:d1:cc:c3:7c:60:5c:43:40:c7:16:93:f8:d0:7b:17:04:
         13:44:34:dc:46:52:19:cd:02:bb:a4:91:a0:f0:1e:e6:7e:80:
         1f:9c:43:dc:9e:15:a1:a2:2f:46:de:15:40:dd:56:a1:30:2a:
         82:a2:01:b0:75:cf:a4:b3:41:62:d7:db:28:af:c6:33:59:f1:
         18:7f:b4:e3:37:af:f7:13:d1:ca:7b:a7:ee:be:54:22:d4:8f:
         ad:2e:ac:1f:e2:cb:a0:09:b6:5d:2c:87:ab:e8:34:da:2c:d2:
         4b:f2:f0:fb:c1:ab:f7:68:9a:e6:8c:65:63:47:ad:5d:5d:f5:
         83:6f:51:b6:2a:c1:ea:48:06:c4:b5:df:a9:e0:fa:b5:71:ff:
         be:5a:68:1b:de:db:a7:8a:38:8a:2f:ac:8e:e6:ef:fd:0b:a9:
         42:de:20:47:c4:5d:80:02:1e:6d:a6:b1:9d:cf:b6:c0:15:06:
         5a:f1:ce:01
-----BEGIN CERTIFICATE-----
MIIDKDCCAhACCGjdI0wjihFiMA0GCSqGSIb3DQEBCwUAME4xCzAJBgNVBAYTAkVT
MQswCQYDVQQIDAJWSTENMAsGA1UECgwERklTUzESMBAGA1UECwwJU2VndXJpZGFk
MQ8wDQYDVQQDDAZTZWN1SUQwHhcNMTYwMzA4MTc1MDE3WhcNMTcwMzA4MTc1MDE3
WjBfMQswCQYDVQQGEwJFUzELMAkGA1UECAwCVkkxDTALBgNVBAoMBEZJU1MxCjAI
BgNVBAsMAVUxFjAUBgNVBAMMDXd3dy5zZHJzaS5sYWIxEDAOBgkqhkiG9w0BCQEW
AWEwggEiMA0GCSqGSIb3DQEBAQUAA4IBDwAwggEKAoIBAQCvceHtbTT6mfTCflE0
aSp2AcmqYxPYbVoepHuP+NDE6MRyAFKyZa9nNk9a1EQg4948iF2CAG93GMfTz9Hy
4nlHjiTz211e2YDJ+3OqHXyWhc37k1o7odm039ub7oKeOII9oajrdI/2zqE+sNiV
Gm8sMaBqqXKDdEJx0OGuYyB1pAJksaJiW04vZUCKzIRlyH1+COoX35nIDtiszyAv
5PzFF13uCuq9IwF4mfEhAu1eUJQj0c589WMcbrMe1a+ZqOHUEVL1ii9a6mcOFB4u
XJadBMGDroouAW4Ol8G3CLWTjTNrrWWd5NqOaGi47L4D4VXhVeqyZgh+nqTyk2YO
z4TtAgMBAAEwDQYJKoZIhvcNAQELBQADggEBAC0FKG1tVzhDb+GT1YskR3XiBv2A
R3VQD1EsJaczcBMacDuFuBy64lY+gniMlRYyr5cBSwHKUyw1E8SnJ+lnwrsXMcHZ
FXQO8O+k0czDfGBcQ0DHFpP40HsXBBNENNxGUhnNArukkaDwHuZ+gB+cQ9yeFaGi
L0beFUDdVqEwKoKiAbB1z6SzQWLX2yivxjNZ8Rh/tOM3r/cT0cp7p+6+VCLUj60u
rB/iy6AJtl0sh6voNNos0kvy8PvBq/domuaMZWNHrV1d9YNvUbYqwepIBsS136ng
+rVx/75aaBve26eKOIovrI7m7/0LqULeIEfEXYACHm2msZ3PtsAVBlrxzgE=
-----END CERTIFICATE-----
