Certificate:
    Data:
        Version: 1 (0x0)
        Serial Number: 7556234559718297949 (0x68dd234c238a115d)
    Signature Algorithm: sha256WithRSAEncryption
        Issuer: C=ES, ST=VI, O=FISS, OU=Seguridad, CN=SecuID
        Validity
            Not Before: Mar  9 00:08:39 2016 GMT
            Not After : Mar  9 00:08:39 2017 GMT
        Subject: C=ES, ST=VI, O=FISS, OU=NONE, CN=www.srdsi.lab/emailAddress=anon@anon.es
        Subject Public Key Info:
            Public Key Algorithm: rsaEncryption
                Public-Key: (2048 bit)
                Modulus:
                    00:ea:b2:d4:09:74:62:27:e6:68:14:44:84:fe:e9:
                    9a:b5:8c:24:7c:96:c6:fa:f7:c3:69:ee:c9:cd:a7:
                    14:f5:d2:53:d4:48:95:0c:aa:cb:44:24:49:76:3f:
                    43:a3:5a:9e:8e:11:bb:8c:ac:46:33:48:db:c6:a2:
                    3e:7f:16:c1:68:f0:27:31:d0:81:0a:74:b1:7a:d8:
                    12:36:88:dc:c0:71:a0:da:d6:98:db:4b:3e:cd:60:
                    bd:bd:22:c8:c1:d5:6e:e3:f9:a3:af:78:f2:83:92:
                    ed:58:db:98:aa:d8:04:a7:49:2e:5a:47:5b:b2:7c:
                    0b:fa:1b:22:1e:0b:bc:02:df:98:54:02:f3:1e:43:
                    85:0f:d8:3d:52:9b:e7:06:33:41:5c:3d:1e:a0:e0:
                    a2:95:de:1b:24:1c:e3:c6:27:c3:3a:7e:18:57:da:
                    49:1e:77:3b:40:82:aa:13:47:ca:33:ef:fa:93:c3:
                    15:c6:29:e7:ae:04:c9:5e:f9:b7:8e:cd:8e:33:e5:
                    65:d7:0c:c7:21:46:8e:c4:81:f3:13:ed:c5:33:7c:
                    e5:07:98:e9:9e:e7:0d:9f:d6:96:5c:ce:ee:69:d5:
                    00:4d:d3:f1:d4:d2:73:25:1d:b7:fe:fc:94:44:34:
                    65:28:da:81:66:e6:e3:ba:55:80:07:c5:1d:b5:1f:
                    13:a1
                Exponent: 65537 (0x10001)
    Signature Algorithm: sha256WithRSAEncryption
         75:d0:a4:38:45:54:ca:2d:e8:74:7c:70:f7:fb:1f:e2:fa:ba:
         aa:c9:f0:88:08:86:aa:ea:c8:ee:9a:e7:c2:26:24:e4:51:a6:
         c6:5c:83:cd:6b:e5:cb:1d:fe:db:5e:fb:6d:cc:e1:4a:d5:96:
         fd:56:80:28:fb:96:ab:ab:b1:bf:bf:dd:a7:13:00:6a:92:57:
         82:7d:da:55:b6:cf:c3:95:df:0b:9a:a3:d1:cb:5b:2d:ad:db:
         f5:94:ee:d2:9d:c0:e6:7f:14:00:85:67:c0:94:25:e6:92:9c:
         5a:a2:5b:f2:92:2d:2d:72:01:8f:6d:fe:8f:31:9d:6c:5f:2e:
         2a:09:6b:b0:71:ea:1f:89:a3:f0:7a:e5:4d:ac:37:20:38:a9:
         f4:9a:8b:eb:b2:28:c3:3f:ef:8d:f6:05:6c:cd:c5:7c:69:39:
         ee:71:df:db:02:cb:16:09:2e:fd:23:a5:9f:8f:15:7b:08:82:
         b4:da:95:cb:0b:4f:8f:54:e5:63:09:15:c4:91:50:8c:33:c0:
         21:86:e3:f8:fa:9b:51:fb:0c:3c:bc:aa:11:54:67:26:cd:49:
         03:f0:d6:77:98:3c:84:11:f1:ef:86:ec:bb:41:82:65:43:66:
         64:92:94:ce:9e:71:c4:5f:81:b4:5c:34:a7:f7:a5:75:b8:a8:
         b5:0d:8f:00
-----BEGIN CERTIFICATE-----
MIIDNjCCAh4CCGjdI0wjihFdMA0GCSqGSIb3DQEBCwUAME4xCzAJBgNVBAYTAkVT
MQswCQYDVQQIDAJWSTENMAsGA1UECgwERklTUzESMBAGA1UECwwJU2VndXJpZGFk
MQ8wDQYDVQQDDAZTZWN1SUQwHhcNMTYwMzA5MDAwODM5WhcNMTcwMzA5MDAwODM5
WjBtMQswCQYDVQQGEwJFUzELMAkGA1UECAwCVkkxDTALBgNVBAoMBEZJU1MxDTAL
BgNVBAsMBE5PTkUxFjAUBgNVBAMMDXd3dy5zcmRzaS5sYWIxGzAZBgkqhkiG9w0B
CQEWDGFub25AYW5vbi5lczCCASIwDQYJKoZIhvcNAQEBBQADggEPADCCAQoCggEB
AOqy1Al0YifmaBREhP7pmrWMJHyWxvr3w2nuyc2nFPXSU9RIlQyqy0QkSXY/Q6Na
no4Ru4ysRjNI28aiPn8WwWjwJzHQgQp0sXrYEjaI3MBxoNrWmNtLPs1gvb0iyMHV
buP5o6948oOS7VjbmKrYBKdJLlpHW7J8C/obIh4LvALfmFQC8x5DhQ/YPVKb5wYz
QVw9HqDgopXeGyQc48Ynwzp+GFfaSR53O0CCqhNHyjPv+pPDFcYp564EyV75t47N
jjPlZdcMxyFGjsSB8xPtxTN85QeY6Z7nDZ/WllzO7mnVAE3T8dTScyUdt/78lEQ0
ZSjagWbm47pVgAfFHbUfE6ECAwEAATANBgkqhkiG9w0BAQsFAAOCAQEAddCkOEVU
yi3odHxw9/sf4vq6qsnwiAiGqurI7prnwiYk5FGmxlyDzWvlyx3+2177bczhStWW
/VaAKPuWq6uxv7/dpxMAapJXgn3aVbbPw5XfC5qj0ctbLa3b9ZTu0p3A5n8UAIVn
wJQl5pKcWqJb8pItLXIBj23+jzGdbF8uKglrsHHqH4mj8HrlTaw3IDip9JqL67Io
wz/vjfYFbM3FfGk57nHf2wLLFgku/SOln48VewiCtNqVywtPj1TlYwkVxJFQjDPA
IYbj+PqbUfsMPLyqEVRnJs1JA/DWd5g8hBHx74bsu0GCZUNmZJKUzp5xxF+BtFw0
p/eldbiotQ2PAA==
-----END CERTIFICATE-----
