Certificate:
    Data:
        Version: 3 (0x2)
        Serial Number: 7556234559718297950 (0x68dd234c238a115e)
    Signature Algorithm: sha256WithRSAEncryption
        Issuer: C=ES, ST=VI, O=FISS, OU=Seguridad, CN=SecuID
        Validity
            Not Before: Mar  9 01:23:13 2016 GMT
            Not After : Mar  9 01:23:13 2017 GMT
        Subject: C=ES, ST=VI, O=FISS, OU=Seguridad, CN=SECUID
        Subject Public Key Info:
            Public Key Algorithm: rsaEncryption
                Public-Key: (2048 bit)
                Modulus:
                    00:cd:0c:9f:db:6b:56:8d:9c:cd:fd:8e:fb:6d:d5:
                    98:97:22:b0:5e:45:be:26:7c:6d:2c:2f:60:67:cf:
                    48:16:88:40:19:a8:96:78:91:d0:72:a9:07:5d:60:
                    2a:4f:c6:06:74:c1:c3:5a:47:87:35:10:d7:7c:fd:
                    b2:68:32:51:b5:91:68:d3:31:02:1d:f5:e5:3a:1d:
                    77:e1:49:45:57:9b:90:0b:f7:0f:81:13:21:35:97:
                    50:d2:b7:24:14:25:ee:49:e0:92:aa:8b:15:d7:ad:
                    41:cf:c6:41:9c:22:eb:e1:2e:91:bc:78:b7:9d:ce:
                    b6:da:e9:6e:4a:a5:d7:5b:2a:32:a9:55:7f:8a:f4:
                    14:24:5d:02:53:68:52:5e:c4:cd:80:60:1f:a2:79:
                    b9:cf:ba:16:eb:49:38:52:56:b2:f7:0e:18:a0:15:
                    35:18:45:41:25:56:fb:63:36:fe:b4:0e:c4:0d:85:
                    a6:65:31:12:5d:ad:6e:d6:d9:c8:04:10:ab:68:30:
                    64:06:6c:2e:a1:22:54:1d:e5:a9:f5:f6:dc:bb:be:
                    8b:9c:31:a6:4a:14:d6:9e:d1:53:8b:7c:60:5d:21:
                    63:30:8e:9b:f0:e5:e6:7e:bc:cd:db:ad:8f:16:23:
                    dc:4b:f0:d0:cf:fe:1a:e3:40:83:e3:89:db:1c:41:
                    ad:a9
                Exponent: 65537 (0x10001)
        X509v3 extensions:
            Authority Information Access: 
                CA Issuers - URI:http://ca-root.srdsi.lab/ca-root.crt
                OCSP - URI:http://ocsp.srdsi.lab:50000

            X509v3 Authority Key Identifier: 
                keyid:CF:42:10:F1:89:2B:52:2C:FD:0A:6B:11:5D:0B:25:65:82:7D:D9:96

            X509v3 Basic Constraints: critical
                CA:FALSE
            X509v3 CRL Distribution Points: 

                Full Name:
                  URI:http://ca-root.srdsi.lab/ca-root.crl

            X509v3 Extended Key Usage: 
                TLS Web Client Authentication
            X509v3 Key Usage: critical
                Digital Signature
            X509v3 Subject Key Identifier: 
                09:22:28:46:7D:30:1F:70:15:5A:A7:79:FC:38:E4:A1:9E:A8:9B:60
    Signature Algorithm: sha256WithRSAEncryption
         7e:b8:05:7a:19:8a:98:bf:7e:00:ce:02:eb:f3:5c:31:d2:31:
         45:ab:3a:ab:dd:84:dd:7d:4b:6d:61:e1:83:36:81:87:6c:9b:
         7f:9e:e9:75:7a:d8:42:63:80:2b:e9:c0:1a:ed:aa:2e:99:c7:
         44:17:d8:f3:d6:b9:69:cc:6a:56:50:14:8f:8b:6a:db:41:38:
         e1:b3:9c:ad:fc:e9:59:08:ab:dd:db:ea:71:b8:1d:df:be:53:
         1c:b6:ff:17:b4:fb:49:16:d5:06:89:f6:5d:90:3c:d2:46:bd:
         da:92:f1:f3:e4:5d:f8:f6:77:a7:9f:4f:14:40:e1:8f:53:16:
         a0:1b:93:ce:c8:5b:09:49:97:e1:c8:2e:9c:48:0e:09:1c:e8:
         66:2e:8c:e8:27:29:33:05:be:14:07:91:08:51:d6:a0:68:d8:
         50:04:29:63:f9:f7:2e:4d:2e:9d:99:d0:bd:a4:70:8d:b3:c6:
         fb:5f:eb:9e:2f:30:3e:0d:c7:87:aa:67:34:95:aa:da:15:c5:
         75:a9:f1:f4:c9:00:3f:77:8f:47:5e:46:72:19:e4:8b:49:a9:
         e6:75:af:e2:18:b9:eb:e7:72:f0:53:40:10:e9:f0:b6:37:a8:
         f5:09:0e:2d:1d:f0:4d:3d:b2:6e:5f:db:01:64:5f:be:24:c5:
         2e:5b:cb:18
-----BEGIN CERTIFICATE-----
MIIEOTCCAyGgAwIBAgIIaN0jTCOKEV4wDQYJKoZIhvcNAQELBQAwTjELMAkGA1UE
BhMCRVMxCzAJBgNVBAgMAlZJMQ0wCwYDVQQKDARGSVNTMRIwEAYDVQQLDAlTZWd1
cmlkYWQxDzANBgNVBAMMBlNlY3VJRDAeFw0xNjAzMDkwMTIzMTNaFw0xNzAzMDkw
MTIzMTNaME4xCzAJBgNVBAYTAkVTMQswCQYDVQQIDAJWSTENMAsGA1UECgwERklT
UzESMBAGA1UECwwJU2VndXJpZGFkMQ8wDQYDVQQDDAZTRUNVSUQwggEiMA0GCSqG
SIb3DQEBAQUAA4IBDwAwggEKAoIBAQDNDJ/ba1aNnM39jvtt1ZiXIrBeRb4mfG0s
L2Bnz0gWiEAZqJZ4kdByqQddYCpPxgZ0wcNaR4c1ENd8/bJoMlG1kWjTMQId9eU6
HXfhSUVXm5AL9w+BEyE1l1DStyQUJe5J4JKqixXXrUHPxkGcIuvhLpG8eLedzrba
6W5KpddbKjKpVX+K9BQkXQJTaFJexM2AYB+iebnPuhbrSThSVrL3DhigFTUYRUEl
VvtjNv60DsQNhaZlMRJdrW7W2cgEEKtoMGQGbC6hIlQd5an19ty7voucMaZKFNae
0VOLfGBdIWMwjpvw5eZ+vM3brY8WI9xL8NDP/hrjQIPjidscQa2pAgMBAAGjggEZ
MIIBFTBpBggrBgEFBQcBAQRdMFswMAYIKwYBBQUHMAKGJGh0dHA6Ly9jYS1yb290
LnNyZHNpLmxhYi9jYS1yb290LmNydDAnBggrBgEFBQcwAYYbaHR0cDovL29jc3Au
c3Jkc2kubGFiOjUwMDAwMB8GA1UdIwQYMBaAFM9CEPGJK1Is/QprEV0LJWWCfdmW
MAwGA1UdEwEB/wQCMAAwNQYDVR0fBC4wLDAqoCigJoYkaHR0cDovL2NhLXJvb3Qu
c3Jkc2kubGFiL2NhLXJvb3QuY3JsMBMGA1UdJQQMMAoGCCsGAQUFBwMCMA4GA1Ud
DwEB/wQEAwIHgDAdBgNVHQ4EFgQUCSIoRn0wH3AVWqd5/DjkoZ6om2AwDQYJKoZI
hvcNAQELBQADggEBAH64BXoZipi/fgDOAuvzXDHSMUWrOqvdhN19S21h4YM2gYds
m3+e6XV62EJjgCvpwBrtqi6Zx0QX2PPWuWnMalZQFI+LattBOOGznK386VkIq93b
6nG4Hd++Uxy2/xe0+0kW1QaJ9l2QPNJGvdqS8fPkXfj2d6efTxRA4Y9TFqAbk87I
WwlJl+HILpxIDgkc6GYujOgnKTMFvhQHkQhR1qBo2FAEKWP59y5NLp2Z0L2kcI2z
xvtf654vMD4Nx4eqZzSVqtoVxXWp8fTJAD93j0deRnIZ5ItJqeZ1r+IYuevncvBT
QBDp8LY3qPUJDi0d8E09sm5f2wFkX74kxS5byxg=
-----END CERTIFICATE-----
