Certificate:
    Data:
        Version: 3 (0x2)
        Serial Number: 7556234559718297956 (0x68dd234c238a1164)
    Signature Algorithm: sha256WithRSAEncryption
        Issuer: C=ES, ST=VI, O=FISS, OU=Seguridad, CN=SecuID
        Validity
            Not Before: Mar  8 18:22:17 2016 GMT
            Not After : Mar  8 18:22:17 2017 GMT
        Subject: C=ES, ST=VI, O=FISS, OU=A, CN=www.srdsi.lab/emailAddress=a
        Subject Public Key Info:
            Public Key Algorithm: rsaEncryption
                Public-Key: (2048 bit)
                Modulus:
                    00:af:71:e1:ed:6d:34:fa:99:f4:c2:7e:51:34:69:
                    2a:76:01:c9:aa:63:13:d8:6d:5a:1e:a4:7b:8f:f8:
                    d0:c4:e8:c4:72:00:52:b2:65:af:67:36:4f:5a:d4:
                    44:20:e3:de:3c:88:5d:82:00:6f:77:18:c7:d3:cf:
                    d1:f2:e2:79:47:8e:24:f3:db:5d:5e:d9:80:c9:fb:
                    73:aa:1d:7c:96:85:cd:fb:93:5a:3b:a1:d9:b4:df:
                    db:9b:ee:82:9e:38:82:3d:a1:a8:eb:74:8f:f6:ce:
                    a1:3e:b0:d8:95:1a:6f:2c:31:a0:6a:a9:72:83:74:
                    42:71:d0:e1:ae:63:20:75:a4:02:64:b1:a2:62:5b:
                    4e:2f:65:40:8a:cc:84:65:c8:7d:7e:08:ea:17:df:
                    99:c8:0e:d8:ac:cf:20:2f:e4:fc:c5:17:5d:ee:0a:
                    ea:bd:23:01:78:99:f1:21:02:ed:5e:50:94:23:d1:
                    ce:7c:f5:63:1c:6e:b3:1e:d5:af:99:a8:e1:d4:11:
                    52:f5:8a:2f:5a:ea:67:0e:14:1e:2e:5c:96:9d:04:
                    c1:83:ae:8a:2e:01:6e:0e:97:c1:b7:08:b5:93:8d:
                    33:6b:ad:65:9d:e4:da:8e:68:68:b8:ec:be:03:e1:
                    55:e1:55:ea:b2:66:08:7e:9e:a4:f2:93:66:0e:cf:
                    84:ed
                Exponent: 65537 (0x10001)
        X509v3 extensions:
            Authority Information Access: 
                CA Issuers - URI:http://ca-root.srdsi.lab/ca-root.crt
                OCSP - URI:http://ocsp.srdsi.lab:50000

            X509v3 Authority Key Identifier: 
                keyid:CF:42:10:F1:89:2B:52:2C:FD:0A:6B:11:5D:0B:25:65:82:7D:D9:96

            X509v3 Basic Constraints: critical
                CA:FALSE
            X509v3 CRL Distribution Points: 

                Full Name:
                  URI:http://ca-root.srdsi.lab/ca-root.crl

            X509v3 Extended Key Usage: 
                TLS Web Client Authentication
            X509v3 Key Usage: critical
                Digital Signature
            X509v3 Subject Key Identifier: 
                80:63:1B:56:42:AD:69:B9:C6:CB:D0:12:2D:49:6B:DD:E7:6F:C7:E7
    Signature Algorithm: sha256WithRSAEncryption
         1a:b5:49:a6:34:f9:7c:6c:69:fc:76:b8:42:5c:e2:be:4e:35:
         19:28:21:21:59:78:b2:e7:2e:09:13:58:af:73:60:e1:c8:e6:
         70:c1:d9:3a:88:eb:f7:9d:6b:bf:be:92:d2:d0:e8:f5:88:36:
         ed:bd:66:0c:2c:c9:cd:0d:5e:5f:c6:ce:6a:76:ea:27:05:5e:
         34:b0:dd:86:51:f7:1f:fa:b8:a3:21:15:0d:a3:cd:07:bb:76:
         bf:ec:52:f9:e9:b9:f3:24:97:06:08:a1:42:31:ec:1d:14:13:
         58:7f:4e:86:66:ca:52:20:7b:cd:c2:c0:e0:fc:68:1a:bf:ec:
         4c:d9:d2:e1:23:a1:e9:99:e4:7c:ef:6d:09:0f:a1:1d:34:49:
         9c:8b:20:b2:10:cf:f3:fe:71:8a:f2:f6:a0:e7:ed:1c:4c:83:
         1a:19:bd:18:a9:6c:a4:6d:3d:a7:15:a9:9f:c0:b9:86:64:1d:
         ec:08:18:89:96:bd:8f:30:18:0c:99:0d:9a:fa:ce:a4:85:a0:
         4f:6a:45:db:41:ae:80:f7:bd:9b:1c:87:33:b5:20:c6:ea:1c:
         a6:1a:f7:8e:36:b4:d7:a9:b4:82:58:19:cb:95:ed:6f:29:8e:
         f6:ab:9a:08:1f:48:1b:a2:5f:2e:d6:ae:8e:55:47:5f:6d:ff:
         b1:2d:82:b4
-----BEGIN CERTIFICATE-----
MIIESjCCAzKgAwIBAgIIaN0jTCOKEWQwDQYJKoZIhvcNAQELBQAwTjELMAkGA1UE
BhMCRVMxCzAJBgNVBAgMAlZJMQ0wCwYDVQQKDARGSVNTMRIwEAYDVQQLDAlTZWd1
cmlkYWQxDzANBgNVBAMMBlNlY3VJRDAeFw0xNjAzMDgxODIyMTdaFw0xNzAzMDgx
ODIyMTdaMF8xCzAJBgNVBAYTAkVTMQswCQYDVQQIDAJWSTENMAsGA1UECgwERklT
UzEKMAgGA1UECwwBQTEWMBQGA1UEAwwNd3d3LnNyZHNpLmxhYjEQMA4GCSqGSIb3
DQEJARYBYTCCASIwDQYJKoZIhvcNAQEBBQADggEPADCCAQoCggEBAK9x4e1tNPqZ
9MJ+UTRpKnYByapjE9htWh6ke4/40MToxHIAUrJlr2c2T1rURCDj3jyIXYIAb3cY
x9PP0fLieUeOJPPbXV7ZgMn7c6odfJaFzfuTWjuh2bTf25vugp44gj2hqOt0j/bO
oT6w2JUabywxoGqpcoN0QnHQ4a5jIHWkAmSxomJbTi9lQIrMhGXIfX4I6hffmcgO
2KzPIC/k/MUXXe4K6r0jAXiZ8SEC7V5QlCPRznz1Yxxusx7Vr5mo4dQRUvWKL1rq
Zw4UHi5clp0EwYOuii4Bbg6XwbcItZONM2utZZ3k2o5oaLjsvgPhVeFV6rJmCH6e
pPKTZg7PhO0CAwEAAaOCARkwggEVMGkGCCsGAQUFBwEBBF0wWzAwBggrBgEFBQcw
AoYkaHR0cDovL2NhLXJvb3Quc3Jkc2kubGFiL2NhLXJvb3QuY3J0MCcGCCsGAQUF
BzABhhtodHRwOi8vb2NzcC5zcmRzaS5sYWI6NTAwMDAwHwYDVR0jBBgwFoAUz0IQ
8YkrUiz9CmsRXQslZYJ92ZYwDAYDVR0TAQH/BAIwADA1BgNVHR8ELjAsMCqgKKAm
hiRodHRwOi8vY2Etcm9vdC5zcmRzaS5sYWIvY2Etcm9vdC5jcmwwEwYDVR0lBAww
CgYIKwYBBQUHAwIwDgYDVR0PAQH/BAQDAgeAMB0GA1UdDgQWBBSAYxtWQq1pucbL
0BItSWvd52/H5zANBgkqhkiG9w0BAQsFAAOCAQEAGrVJpjT5fGxp/Ha4Qlzivk41
GSghIVl4sucuCRNYr3Ng4cjmcMHZOojr951rv76S0tDo9Yg27b1mDCzJzQ1eX8bO
anbqJwVeNLDdhlH3H/q4oyEVDaPNB7t2v+xS+em58ySXBgihQjHsHRQTWH9OhmbK
UiB7zcLA4PxoGr/sTNnS4SOh6ZnkfO9tCQ+hHTRJnIsgshDP8/5xivL2oOftHEyD
Ghm9GKlspG09pxWpn8C5hmQd7AgYiZa9jzAYDJkNmvrOpIWgT2pF20GugPe9mxyH
M7Ugxuocphr3jja016m0glgZy5XtbymO9quaCB9IG6JfLtaujlVHX23/sS2CtA==
-----END CERTIFICATE-----
