Certificate:
    Data:
        Version: 3 (0x2)
        Serial Number: 7556234559718297952 (0x68dd234c238a1160)
    Signature Algorithm: sha256WithRSAEncryption
        Issuer: C=ES, ST=VI, O=FISS, OU=Seguridad, CN=SecuID
        Validity
            Not Before: Mar  9 02:03:07 2016 GMT
            Not After : Mar  9 02:03:07 2017 GMT
        Subject: C=ES, ST=VI, O=FISS, OU=A, CN=www.srdsi.lab/emailAddress=a@a.com
        Subject Public Key Info:
            Public Key Algorithm: rsaEncryption
                Public-Key: (2048 bit)
                Modulus:
                    00:af:71:e1:ed:6d:34:fa:99:f4:c2:7e:51:34:69:
                    2a:76:01:c9:aa:63:13:d8:6d:5a:1e:a4:7b:8f:f8:
                    d0:c4:e8:c4:72:00:52:b2:65:af:67:36:4f:5a:d4:
                    44:20:e3:de:3c:88:5d:82:00:6f:77:18:c7:d3:cf:
                    d1:f2:e2:79:47:8e:24:f3:db:5d:5e:d9:80:c9:fb:
                    73:aa:1d:7c:96:85:cd:fb:93:5a:3b:a1:d9:b4:df:
                    db:9b:ee:82:9e:38:82:3d:a1:a8:eb:74:8f:f6:ce:
                    a1:3e:b0:d8:95:1a:6f:2c:31:a0:6a:a9:72:83:74:
                    42:71:d0:e1:ae:63:20:75:a4:02:64:b1:a2:62:5b:
                    4e:2f:65:40:8a:cc:84:65:c8:7d:7e:08:ea:17:df:
                    99:c8:0e:d8:ac:cf:20:2f:e4:fc:c5:17:5d:ee:0a:
                    ea:bd:23:01:78:99:f1:21:02:ed:5e:50:94:23:d1:
                    ce:7c:f5:63:1c:6e:b3:1e:d5:af:99:a8:e1:d4:11:
                    52:f5:8a:2f:5a:ea:67:0e:14:1e:2e:5c:96:9d:04:
                    c1:83:ae:8a:2e:01:6e:0e:97:c1:b7:08:b5:93:8d:
                    33:6b:ad:65:9d:e4:da:8e:68:68:b8:ec:be:03:e1:
                    55:e1:55:ea:b2:66:08:7e:9e:a4:f2:93:66:0e:cf:
                    84:ed
                Exponent: 65537 (0x10001)
        X509v3 extensions:
            Authority Information Access: 
                CA Issuers - URI:http://ca-root.srdsi.lab/ca-root.crt
                OCSP - URI:http://ocsp.srdsi.lab:50000

            X509v3 Authority Key Identifier: 
                keyid:CF:42:10:F1:89:2B:52:2C:FD:0A:6B:11:5D:0B:25:65:82:7D:D9:96

            X509v3 Basic Constraints: critical
                CA:FALSE
            X509v3 CRL Distribution Points: 

                Full Name:
                  URI:http://ca-root.srdsi.lab/ca-root.crl

            X509v3 Extended Key Usage: 
                TLS Web Client Authentication
            X509v3 Key Usage: critical
                Digital Signature
            X509v3 Subject Key Identifier: 
                80:63:1B:56:42:AD:69:B9:C6:CB:D0:12:2D:49:6B:DD:E7:6F:C7:E7
    Signature Algorithm: sha256WithRSAEncryption
         41:73:4e:69:99:3f:5d:c4:58:46:d7:0a:d8:35:98:a6:7f:2c:
         a1:e3:00:66:56:08:ce:67:1f:71:f5:e3:18:74:27:99:99:02:
         07:b8:3a:a7:52:e5:e3:78:93:85:bc:fc:3c:d5:c2:05:bb:86:
         6e:79:d6:96:df:3f:7d:5c:13:59:08:3f:31:db:49:65:2c:c3:
         ea:4a:7b:11:ea:ef:bb:89:55:a9:7a:31:b4:6f:65:c3:44:5f:
         11:1b:00:cc:46:b1:43:68:34:e3:d6:0e:8c:8c:e9:6e:02:6d:
         f8:67:1b:e4:95:05:98:b8:4a:92:fc:d9:1c:3e:03:fd:38:1e:
         bd:92:2c:cd:b0:c3:bd:6d:8b:e2:ec:5d:a7:e5:d6:24:df:ac:
         56:38:d3:b0:fc:a4:67:2a:34:65:8d:71:d6:83:9f:38:26:2e:
         57:70:c3:da:d9:0e:15:80:17:90:e8:4b:4a:66:48:07:6d:33:
         a3:32:c9:b7:55:48:0e:a1:41:ff:ca:dc:e3:86:e9:e9:33:5c:
         7f:3b:76:93:0e:80:d4:af:56:1f:e5:e5:87:7e:d3:d1:be:66:
         60:29:ef:dd:cb:41:05:b2:82:f1:02:24:35:09:32:58:93:04:
         40:23:d3:fe:9e:0c:b4:77:68:8b:60:45:7c:de:ae:19:02:81:
         6e:a3:82:22
-----BEGIN CERTIFICATE-----
MIIEUDCCAzigAwIBAgIIaN0jTCOKEWAwDQYJKoZIhvcNAQELBQAwTjELMAkGA1UE
BhMCRVMxCzAJBgNVBAgMAlZJMQ0wCwYDVQQKDARGSVNTMRIwEAYDVQQLDAlTZWd1
cmlkYWQxDzANBgNVBAMMBlNlY3VJRDAeFw0xNjAzMDkwMjAzMDdaFw0xNzAzMDkw
MjAzMDdaMGUxCzAJBgNVBAYTAkVTMQswCQYDVQQIDAJWSTENMAsGA1UECgwERklT
UzEKMAgGA1UECwwBQTEWMBQGA1UEAwwNd3d3LnNyZHNpLmxhYjEWMBQGCSqGSIb3
DQEJARYHYUBhLmNvbTCCASIwDQYJKoZIhvcNAQEBBQADggEPADCCAQoCggEBAK9x
4e1tNPqZ9MJ+UTRpKnYByapjE9htWh6ke4/40MToxHIAUrJlr2c2T1rURCDj3jyI
XYIAb3cYx9PP0fLieUeOJPPbXV7ZgMn7c6odfJaFzfuTWjuh2bTf25vugp44gj2h
qOt0j/bOoT6w2JUabywxoGqpcoN0QnHQ4a5jIHWkAmSxomJbTi9lQIrMhGXIfX4I
6hffmcgO2KzPIC/k/MUXXe4K6r0jAXiZ8SEC7V5QlCPRznz1Yxxusx7Vr5mo4dQR
UvWKL1rqZw4UHi5clp0EwYOuii4Bbg6XwbcItZONM2utZZ3k2o5oaLjsvgPhVeFV
6rJmCH6epPKTZg7PhO0CAwEAAaOCARkwggEVMGkGCCsGAQUFBwEBBF0wWzAwBggr
BgEFBQcwAoYkaHR0cDovL2NhLXJvb3Quc3Jkc2kubGFiL2NhLXJvb3QuY3J0MCcG
CCsGAQUFBzABhhtodHRwOi8vb2NzcC5zcmRzaS5sYWI6NTAwMDAwHwYDVR0jBBgw
FoAUz0IQ8YkrUiz9CmsRXQslZYJ92ZYwDAYDVR0TAQH/BAIwADA1BgNVHR8ELjAs
MCqgKKAmhiRodHRwOi8vY2Etcm9vdC5zcmRzaS5sYWIvY2Etcm9vdC5jcmwwEwYD
VR0lBAwwCgYIKwYBBQUHAwIwDgYDVR0PAQH/BAQDAgeAMB0GA1UdDgQWBBSAYxtW
Qq1pucbL0BItSWvd52/H5zANBgkqhkiG9w0BAQsFAAOCAQEAQXNOaZk/XcRYRtcK
2DWYpn8soeMAZlYIzmcfcfXjGHQnmZkCB7g6p1Ll43iThbz8PNXCBbuGbnnWlt8/
fVwTWQg/MdtJZSzD6kp7Eervu4lVqXoxtG9lw0RfERsAzEaxQ2g049YOjIzpbgJt
+Gcb5JUFmLhKkvzZHD4D/TgevZIszbDDvW2L4uxdp+XWJN+sVjjTsPykZyo0ZY1x
1oOfOCYuV3DD2tkOFYAXkOhLSmZIB20zozLJt1VIDqFB/8rc44bp6TNcfzt2kw6A
1K9WH+Xlh37T0b5mYCnv3ctBBbKC8QIkNQkyWJMEQCPT/p4MtHdoi2BFfN6uGQKB
bqOCIg==
-----END CERTIFICATE-----
