Certificate:
    Data:
        Version: 3 (0x2)
        Serial Number: 7556234559718297951 (0x68dd234c238a115f)
    Signature Algorithm: sha256WithRSAEncryption
        Issuer: C=ES, ST=VI, O=FISS, OU=Seguridad, CN=SecuID
        Validity
            Not Before: Mar  9 01:25:34 2016 GMT
            Not After : Mar  9 01:25:34 2017 GMT
        Subject: C=ES, ST=VI, O=FISS, OU=A, CN=www.srdsi.lab/emailAddress=aa@a.com
        Subject Public Key Info:
            Public Key Algorithm: rsaEncryption
                Public-Key: (2048 bit)
                Modulus:
                    00:ee:99:b1:ab:eb:0f:a5:af:2f:5c:f6:e1:ea:be:
                    06:91:7e:58:cf:64:65:43:14:da:c8:b1:6b:e4:28:
                    35:81:ee:88:ee:c6:b0:ef:40:f8:27:3f:c0:85:19:
                    4d:8b:38:9b:60:54:1c:73:58:88:5c:8e:65:79:69:
                    bd:87:05:2f:c4:35:39:87:8d:e3:7a:70:14:7a:4a:
                    ad:a0:3b:a0:85:f9:2e:0d:34:1c:50:e7:23:5b:8f:
                    f9:21:a3:2f:97:7a:e0:15:96:15:8d:1a:8b:c1:ca:
                    77:05:de:56:e0:c0:49:26:6f:59:16:3c:13:79:71:
                    b2:c9:97:b0:05:89:e5:2e:15:3d:ca:32:28:95:03:
                    da:08:16:e9:83:49:16:65:7b:1b:26:a8:4c:9d:9b:
                    4e:83:5a:01:6a:a2:3b:a0:fa:08:f0:cd:c9:89:21:
                    89:4f:8c:e8:49:10:c5:e0:56:03:59:39:9e:da:29:
                    98:65:8a:fa:79:cd:a8:44:d1:b0:33:12:df:1c:8b:
                    64:e5:ce:1c:62:f4:db:4d:a2:5a:6c:ad:d1:f0:9d:
                    1f:8f:c2:25:e9:2e:e0:2d:a4:b6:44:33:a1:9d:1a:
                    78:cb:9b:48:84:26:17:5c:24:76:73:2a:44:3f:0b:
                    cd:2c:25:19:3d:9f:a7:74:ac:2e:9f:6a:ce:06:70:
                    1e:5d
                Exponent: 65537 (0x10001)
        X509v3 extensions:
            Authority Information Access: 
                CA Issuers - URI:http://ca-root.srdsi.lab/ca-root.crt
                OCSP - URI:http://ocsp.srdsi.lab:50000

            X509v3 Authority Key Identifier: 
                keyid:CF:42:10:F1:89:2B:52:2C:FD:0A:6B:11:5D:0B:25:65:82:7D:D9:96

            X509v3 Basic Constraints: critical
                CA:FALSE
            X509v3 CRL Distribution Points: 

                Full Name:
                  URI:http://ca-root.srdsi.lab/ca-root.crl

            X509v3 Extended Key Usage: 
                TLS Web Client Authentication
            X509v3 Key Usage: critical
                Digital Signature
            X509v3 Subject Key Identifier: 
                5A:25:64:C3:D2:25:A6:43:F1:80:5E:E1:90:8C:F2:B4:C4:69:66:AC
    Signature Algorithm: sha256WithRSAEncryption
         6c:f8:d0:ee:6a:97:78:5c:ea:55:2b:a2:dc:54:7c:21:cf:7d:
         11:f4:7b:a2:bd:b3:ec:4a:c6:6f:d4:b1:00:b3:99:91:9c:35:
         69:11:b8:07:16:ef:bc:c2:17:00:1c:f6:3d:fc:20:36:d2:cd:
         86:80:19:f4:2a:70:fa:ac:c1:ad:56:7b:44:02:d0:bd:2b:ca:
         5e:65:9e:11:ba:2a:66:bb:47:40:4d:e9:b0:c3:06:ab:e2:be:
         6a:7e:49:ef:e7:2d:af:4e:07:7d:3c:cb:cb:28:d0:ba:46:0e:
         03:e8:58:78:af:37:f7:72:5d:2b:2e:4b:e2:64:49:83:38:8a:
         a0:28:92:f6:f6:5b:51:6c:58:f1:ef:03:f7:6e:9b:7f:ab:67:
         28:5f:6f:c9:71:f9:07:d4:ae:6b:8f:bc:af:21:cd:df:fb:f4:
         86:df:c7:9b:72:54:54:47:29:cd:02:29:ff:c8:d7:15:b0:71:
         cc:51:d7:54:02:aa:64:f0:4d:e5:c8:ec:7d:2d:93:f6:17:25:
         41:bd:da:a9:ee:c6:f7:27:f8:1a:5b:93:88:f7:52:b2:8e:b5:
         cf:ea:e3:e9:5b:6c:30:8f:40:b1:68:36:00:d5:1a:d4:0f:37:
         a1:cd:a9:04:f4:a3:0f:99:45:16:85:e8:ce:d0:71:69:a9:b4:
         2f:6d:9b:b2
-----BEGIN CERTIFICATE-----
MIIEUTCCAzmgAwIBAgIIaN0jTCOKEV8wDQYJKoZIhvcNAQELBQAwTjELMAkGA1UE
BhMCRVMxCzAJBgNVBAgMAlZJMQ0wCwYDVQQKDARGSVNTMRIwEAYDVQQLDAlTZWd1
cmlkYWQxDzANBgNVBAMMBlNlY3VJRDAeFw0xNjAzMDkwMTI1MzRaFw0xNzAzMDkw
MTI1MzRaMGYxCzAJBgNVBAYTAkVTMQswCQYDVQQIDAJWSTENMAsGA1UECgwERklT
UzEKMAgGA1UECwwBQTEWMBQGA1UEAwwNd3d3LnNyZHNpLmxhYjEXMBUGCSqGSIb3
DQEJARYIYWFAYS5jb20wggEiMA0GCSqGSIb3DQEBAQUAA4IBDwAwggEKAoIBAQDu
mbGr6w+lry9c9uHqvgaRfljPZGVDFNrIsWvkKDWB7ojuxrDvQPgnP8CFGU2LOJtg
VBxzWIhcjmV5ab2HBS/ENTmHjeN6cBR6Sq2gO6CF+S4NNBxQ5yNbj/khoy+XeuAV
lhWNGovByncF3lbgwEkmb1kWPBN5cbLJl7AFieUuFT3KMiiVA9oIFumDSRZlexsm
qEydm06DWgFqojug+gjwzcmJIYlPjOhJEMXgVgNZOZ7aKZhlivp5zahE0bAzEt8c
i2Tlzhxi9NtNolpsrdHwnR+PwiXpLuAtpLZEM6GdGnjLm0iEJhdcJHZzKkQ/C80s
JRk9n6d0rC6fas4GcB5dAgMBAAGjggEZMIIBFTBpBggrBgEFBQcBAQRdMFswMAYI
KwYBBQUHMAKGJGh0dHA6Ly9jYS1yb290LnNyZHNpLmxhYi9jYS1yb290LmNydDAn
BggrBgEFBQcwAYYbaHR0cDovL29jc3Auc3Jkc2kubGFiOjUwMDAwMB8GA1UdIwQY
MBaAFM9CEPGJK1Is/QprEV0LJWWCfdmWMAwGA1UdEwEB/wQCMAAwNQYDVR0fBC4w
LDAqoCigJoYkaHR0cDovL2NhLXJvb3Quc3Jkc2kubGFiL2NhLXJvb3QuY3JsMBMG
A1UdJQQMMAoGCCsGAQUFBwMCMA4GA1UdDwEB/wQEAwIHgDAdBgNVHQ4EFgQUWiVk
w9IlpkPxgF7hkIzytMRpZqwwDQYJKoZIhvcNAQELBQADggEBAGz40O5ql3hc6lUr
otxUfCHPfRH0e6K9s+xKxm/UsQCzmZGcNWkRuAcW77zCFwAc9j38IDbSzYaAGfQq
cPqswa1We0QC0L0ryl5lnhG6Kma7R0BN6bDDBqvivmp+Se/nLa9OB308y8so0LpG
DgPoWHivN/dyXSsuS+JkSYM4iqAokvb2W1FsWPHvA/dum3+rZyhfb8lx+QfUrmuP
vK8hzd/79Ibfx5tyVFRHKc0CKf/I1xWwccxR11QCqmTwTeXI7H0tk/YXJUG92qnu
xvcn+Bpbk4j3UrKOtc/q4+lbbDCPQLFoNgDVGtQPN6HNqQT0ow+ZRRaF6M7QcWmp
tC9tm7I=
-----END CERTIFICATE-----
