Certificate:
    Data:
        Version: 3 (0x2)
        Serial Number: 7556234559718297945 (0x68dd234c238a1159)
    Signature Algorithm: sha256WithRSAEncryption
        Issuer: C=ES, ST=VI, O=FISS, OU=Seguridad, CN=SecuID
        Validity
            Not Before: Mar  7 17:19:07 2016 GMT
            Not After : Mar  7 17:19:07 2017 GMT
        Subject: C=ES, ST=VI, O=FISS, OU=Seguridad, CN=SecuID
        Subject Public Key Info:
            Public Key Algorithm: rsaEncryption
                Public-Key: (2048 bit)
                Modulus:
                    00:c0:80:a2:fc:38:f5:4c:85:e2:08:ef:1d:27:ec:
                    50:6d:9a:36:c4:94:78:f3:e7:5a:25:bb:02:c3:7a:
                    e8:b1:e9:6f:4e:3b:a2:93:8e:5b:82:35:73:09:d3:
                    33:89:3c:61:a6:47:5d:d4:fb:ad:a0:8f:d6:de:ff:
                    0f:ad:fe:b4:23:49:a7:0d:48:64:11:81:87:15:ad:
                    bf:2d:e9:b8:1d:fd:a9:51:6a:a3:00:8d:a4:d0:0d:
                    5a:ff:aa:41:0d:5b:e4:6f:d8:fb:44:d1:c6:13:3e:
                    6b:ee:50:e0:32:0b:7c:e0:86:9f:7c:ee:4e:39:f4:
                    6c:bb:e3:b3:de:ec:4a:be:7f:b2:5f:a9:37:a2:2a:
                    41:ee:8b:a3:58:46:a4:e5:f1:a3:55:e2:76:c5:d5:
                    af:1e:69:04:6b:50:b1:4c:2f:a8:e3:7b:75:59:f1:
                    31:4b:9e:c5:ab:53:56:3b:f0:7f:0e:75:16:d7:7d:
                    51:d5:0a:fe:de:a7:81:d0:38:21:f3:5a:25:19:3d:
                    9c:f5:14:8d:d0:39:61:a3:7b:2b:cf:23:b4:6d:05:
                    10:71:fd:39:b5:82:5d:df:0e:a5:79:66:02:9e:4a:
                    8c:26:0b:dd:0b:1a:a7:cf:f0:6e:03:d7:ce:83:28:
                    87:f7:69:d7:37:8e:43:1c:a1:87:2b:ba:90:da:4a:
                    d8:5b
                Exponent: 65537 (0x10001)
        X509v3 extensions:
            X509v3 Authority Key Identifier: 
                keyid:CF:42:10:F1:89:2B:52:2C:FD:0A:6B:11:5D:0B:25:65:82:7D:D9:96

            X509v3 Basic Constraints: critical
                CA:FALSE
            X509v3 Extended Key Usage: 
                OCSP Signing
            X509v3 Key Usage: critical
                Digital Signature
            X509v3 Subject Key Identifier: 
                B2:2C:5A:77:33:81:B7:F6:E4:AC:47:D7:55:0C:64:D3:62:15:B8:D6
    Signature Algorithm: sha256WithRSAEncryption
         06:91:1c:95:9f:1c:6f:02:cf:9d:50:75:e2:3d:66:f7:0d:bf:
         99:ed:00:db:e4:69:e5:cc:a9:22:23:bf:45:55:77:a4:71:38:
         ac:0f:18:4b:7c:9e:b1:18:86:1f:42:b5:4c:5a:52:8c:44:50:
         8d:e7:8e:d8:81:16:7f:7e:e4:51:85:90:b6:b6:6a:dc:1a:69:
         c8:7d:25:c1:6b:db:0a:6e:2d:fe:ba:51:05:7e:95:74:c7:ae:
         fe:65:fa:16:6d:67:23:bf:24:ab:60:f8:03:75:1d:74:ef:28:
         f6:d8:ff:02:8b:ea:2f:70:09:4e:88:45:52:47:ef:b5:50:c7:
         b4:cd:e2:c3:07:47:5c:53:93:47:91:79:77:01:4e:1a:cf:11:
         7d:e4:cb:11:85:6d:40:72:fe:87:c9:d2:a3:a4:44:2c:18:80:
         98:2a:b9:c3:85:59:7d:c9:d8:d7:39:56:62:94:f1:de:bc:f9:
         91:33:b4:72:5a:a9:b1:fb:56:86:df:5d:b4:c9:d5:74:7d:12:
         65:19:b7:42:df:2d:c0:7d:89:e3:b0:be:93:ce:c7:d0:9c:1c:
         f8:57:6f:38:b3:7e:d5:6d:d7:b6:33:d3:a8:8d:2c:ea:65:06:
         9e:8c:28:1d:44:62:7c:59:33:91:e9:ef:d7:2a:50:81:02:0f:
         da:34:cf:53
-----BEGIN CERTIFICATE-----
MIIDkzCCAnugAwIBAgIIaN0jTCOKEVkwDQYJKoZIhvcNAQELBQAwTjELMAkGA1UE
BhMCRVMxCzAJBgNVBAgMAlZJMQ0wCwYDVQQKDARGSVNTMRIwEAYDVQQLDAlTZWd1
cmlkYWQxDzANBgNVBAMMBlNlY3VJRDAeFw0xNjAzMDcxNzE5MDdaFw0xNzAzMDcx
NzE5MDdaME4xCzAJBgNVBAYTAkVTMQswCQYDVQQIDAJWSTENMAsGA1UECgwERklT
UzESMBAGA1UECwwJU2VndXJpZGFkMQ8wDQYDVQQDDAZTZWN1SUQwggEiMA0GCSqG
SIb3DQEBAQUAA4IBDwAwggEKAoIBAQDAgKL8OPVMheII7x0n7FBtmjbElHjz51ol
uwLDeuix6W9OO6KTjluCNXMJ0zOJPGGmR13U+62gj9be/w+t/rQjSacNSGQRgYcV
rb8t6bgd/alRaqMAjaTQDVr/qkENW+Rv2PtE0cYTPmvuUOAyC3zghp987k459Gy7
47Pe7Eq+f7JfqTeiKkHui6NYRqTl8aNV4nbF1a8eaQRrULFML6jje3VZ8TFLnsWr
U1Y78H8OdRbXfVHVCv7ep4HQOCHzWiUZPZz1FI3QOWGjeyvPI7RtBRBx/Tm1gl3f
DqV5ZgKeSowmC90LGqfP8G4D186DKIf3adc3jkMcoYcrupDaSthbAgMBAAGjdTBz
MB8GA1UdIwQYMBaAFM9CEPGJK1Is/QprEV0LJWWCfdmWMAwGA1UdEwEB/wQCMAAw
EwYDVR0lBAwwCgYIKwYBBQUHAwkwDgYDVR0PAQH/BAQDAgeAMB0GA1UdDgQWBBSy
LFp3M4G39uSsR9dVDGTTYhW41jANBgkqhkiG9w0BAQsFAAOCAQEABpEclZ8cbwLP
nVB14j1m9w2/me0A2+Rp5cypIiO/RVV3pHE4rA8YS3yesRiGH0K1TFpSjERQjeeO
2IEWf37kUYWQtrZq3BppyH0lwWvbCm4t/rpRBX6VdMeu/mX6Fm1nI78kq2D4A3Ud
dO8o9tj/AovqL3AJTohFUkfvtVDHtM3iwwdHXFOTR5F5dwFOGs8RfeTLEYVtQHL+
h8nSo6RELBiAmCq5w4VZfcnY1zlWYpTx3rz5kTO0clqpsftWht9dtMnVdH0SZRm3
Qt8twH2J47C+k87H0Jwc+FdvOLN+1W3XtjPTqI0s6mUGnowoHURifFkzkenv1ypQ
gQIP2jTPUw==
-----END CERTIFICATE-----
