Certificate:
    Data:
        Version: 3 (0x2)
        Serial Number: 7556234559718297957 (0x68dd234c238a1165)
    Signature Algorithm: sha256WithRSAEncryption
        Issuer: C=ES, ST=VI, O=FISS, OU=Seguridad, CN=SecuID
        Validity
            Not Before: Mar  8 19:42:56 2016 GMT
            Not After : Mar  8 19:42:56 2017 GMT
        Subject: C=ES, ST=VI, O=FISS, OU=A, CN=www.srdsi.lab/emailAddress=a
        Subject Public Key Info:
            Public Key Algorithm: rsaEncryption
                Public-Key: (2048 bit)
                Modulus:
                    00:af:71:e1:ed:6d:34:fa:99:f4:c2:7e:51:34:69:
                    2a:76:01:c9:aa:63:13:d8:6d:5a:1e:a4:7b:8f:f8:
                    d0:c4:e8:c4:72:00:52:b2:65:af:67:36:4f:5a:d4:
                    44:20:e3:de:3c:88:5d:82:00:6f:77:18:c7:d3:cf:
                    d1:f2:e2:79:47:8e:24:f3:db:5d:5e:d9:80:c9:fb:
                    73:aa:1d:7c:96:85:cd:fb:93:5a:3b:a1:d9:b4:df:
                    db:9b:ee:82:9e:38:82:3d:a1:a8:eb:74:8f:f6:ce:
                    a1:3e:b0:d8:95:1a:6f:2c:31:a0:6a:a9:72:83:74:
                    42:71:d0:e1:ae:63:20:75:a4:02:64:b1:a2:62:5b:
                    4e:2f:65:40:8a:cc:84:65:c8:7d:7e:08:ea:17:df:
                    99:c8:0e:d8:ac:cf:20:2f:e4:fc:c5:17:5d:ee:0a:
                    ea:bd:23:01:78:99:f1:21:02:ed:5e:50:94:23:d1:
                    ce:7c:f5:63:1c:6e:b3:1e:d5:af:99:a8:e1:d4:11:
                    52:f5:8a:2f:5a:ea:67:0e:14:1e:2e:5c:96:9d:04:
                    c1:83:ae:8a:2e:01:6e:0e:97:c1:b7:08:b5:93:8d:
                    33:6b:ad:65:9d:e4:da:8e:68:68:b8:ec:be:03:e1:
                    55:e1:55:ea:b2:66:08:7e:9e:a4:f2:93:66:0e:cf:
                    84:ed
                Exponent: 65537 (0x10001)
        X509v3 extensions:
            Authority Information Access: 
                CA Issuers - URI:http://ca-root.srdsi.lab/ca-root.crt
                OCSP - URI:http://ocsp.srdsi.lab:50000

            X509v3 Authority Key Identifier: 
                keyid:CF:42:10:F1:89:2B:52:2C:FD:0A:6B:11:5D:0B:25:65:82:7D:D9:96

            X509v3 Basic Constraints: critical
                CA:FALSE
            X509v3 CRL Distribution Points: 

                Full Name:
                  URI:http://ca-root.srdsi.lab/ca-root.crl

            X509v3 Extended Key Usage: 
                TLS Web Client Authentication
            X509v3 Key Usage: critical
                Digital Signature
            X509v3 Subject Key Identifier: 
                80:63:1B:56:42:AD:69:B9:C6:CB:D0:12:2D:49:6B:DD:E7:6F:C7:E7
    Signature Algorithm: sha256WithRSAEncryption
         6b:89:68:83:b6:bd:e9:d8:c2:9d:2a:47:60:eb:c7:8b:01:af:
         84:c1:55:34:26:db:93:ad:da:d0:ef:4d:e3:77:de:ce:9a:bf:
         c0:49:9a:48:32:68:33:6c:b7:db:d1:47:75:80:70:54:f4:56:
         c5:f4:28:b0:87:b5:fe:28:fd:30:5b:43:a3:f2:fd:5c:95:2e:
         32:83:34:0c:19:4b:97:0a:30:23:8e:8e:eb:fe:86:6c:b3:1a:
         03:3a:a7:ed:51:a4:b2:f4:4c:24:cf:29:98:b0:f2:1b:8b:f6:
         74:8d:c2:44:c3:14:3e:b0:57:03:63:c7:ba:51:40:ed:e8:f7:
         34:e6:72:1b:7d:32:80:0b:0d:b9:36:c5:93:cb:d3:75:60:7e:
         0a:43:d5:09:3d:4b:8c:ab:ed:a0:1b:97:c7:7f:c2:60:b6:21:
         a0:c3:b2:d4:47:3d:59:5f:a5:7a:0a:df:7a:5d:1a:cc:2d:f7:
         09:26:c0:97:c5:98:c1:65:29:e8:73:25:dd:2e:6e:94:0e:32:
         81:a2:9a:ba:ef:76:e5:99:26:b4:44:db:34:1c:8b:54:30:0f:
         3e:14:1d:67:3b:d1:a7:5e:a7:e9:56:9d:c9:78:bd:13:21:62:
         6f:16:3b:2e:8c:f3:a8:f7:79:70:7a:84:49:c5:ab:c4:fc:96:
         3a:2f:9c:cd
-----BEGIN CERTIFICATE-----
MIIESjCCAzKgAwIBAgIIaN0jTCOKEWUwDQYJKoZIhvcNAQELBQAwTjELMAkGA1UE
BhMCRVMxCzAJBgNVBAgMAlZJMQ0wCwYDVQQKDARGSVNTMRIwEAYDVQQLDAlTZWd1
cmlkYWQxDzANBgNVBAMMBlNlY3VJRDAeFw0xNjAzMDgxOTQyNTZaFw0xNzAzMDgx
OTQyNTZaMF8xCzAJBgNVBAYTAkVTMQswCQYDVQQIDAJWSTENMAsGA1UECgwERklT
UzEKMAgGA1UECwwBQTEWMBQGA1UEAwwNd3d3LnNyZHNpLmxhYjEQMA4GCSqGSIb3
DQEJARYBYTCCASIwDQYJKoZIhvcNAQEBBQADggEPADCCAQoCggEBAK9x4e1tNPqZ
9MJ+UTRpKnYByapjE9htWh6ke4/40MToxHIAUrJlr2c2T1rURCDj3jyIXYIAb3cY
x9PP0fLieUeOJPPbXV7ZgMn7c6odfJaFzfuTWjuh2bTf25vugp44gj2hqOt0j/bO
oT6w2JUabywxoGqpcoN0QnHQ4a5jIHWkAmSxomJbTi9lQIrMhGXIfX4I6hffmcgO
2KzPIC/k/MUXXe4K6r0jAXiZ8SEC7V5QlCPRznz1Yxxusx7Vr5mo4dQRUvWKL1rq
Zw4UHi5clp0EwYOuii4Bbg6XwbcItZONM2utZZ3k2o5oaLjsvgPhVeFV6rJmCH6e
pPKTZg7PhO0CAwEAAaOCARkwggEVMGkGCCsGAQUFBwEBBF0wWzAwBggrBgEFBQcw
AoYkaHR0cDovL2NhLXJvb3Quc3Jkc2kubGFiL2NhLXJvb3QuY3J0MCcGCCsGAQUF
BzABhhtodHRwOi8vb2NzcC5zcmRzaS5sYWI6NTAwMDAwHwYDVR0jBBgwFoAUz0IQ
8YkrUiz9CmsRXQslZYJ92ZYwDAYDVR0TAQH/BAIwADA1BgNVHR8ELjAsMCqgKKAm
hiRodHRwOi8vY2Etcm9vdC5zcmRzaS5sYWIvY2Etcm9vdC5jcmwwEwYDVR0lBAww
CgYIKwYBBQUHAwIwDgYDVR0PAQH/BAQDAgeAMB0GA1UdDgQWBBSAYxtWQq1pucbL
0BItSWvd52/H5zANBgkqhkiG9w0BAQsFAAOCAQEAa4log7a96djCnSpHYOvHiwGv
hMFVNCbbk63a0O9N43fezpq/wEmaSDJoM2y329FHdYBwVPRWxfQosIe1/ij9MFtD
o/L9XJUuMoM0DBlLlwowI46O6/6GbLMaAzqn7VGksvRMJM8pmLDyG4v2dI3CRMMU
PrBXA2PHulFA7ej3NOZyG30ygAsNuTbFk8vTdWB+CkPVCT1LjKvtoBuXx3/CYLYh
oMOy1Ec9WV+legrfel0azC33CSbAl8WYwWUp6HMl3S5ulA4ygaKauu925ZkmtETb
NByLVDAPPhQdZzvRp16n6VadyXi9EyFibxY7LozzqPd5cHqEScWrxPyWOi+czQ==
-----END CERTIFICATE-----
