Certificate:
    Data:
        Version: 1 (0x0)
        Serial Number: 7556234559718297955 (0x68dd234c238a1163)
    Signature Algorithm: sha256WithRSAEncryption
        Issuer: C=ES, ST=VI, O=FISS, OU=Seguridad, CN=SecuID
        Validity
            Not Before: Mar  8 18:04:00 2016 GMT
            Not After : Mar  8 18:04:00 2017 GMT
        Subject: C=ES, ST=VI, O=FISS, OU=A, CN=www.srdsi.lab/emailAddress=a
        Subject Public Key Info:
            Public Key Algorithm: rsaEncryption
                Public-Key: (2048 bit)
                Modulus:
                    00:af:71:e1:ed:6d:34:fa:99:f4:c2:7e:51:34:69:
                    2a:76:01:c9:aa:63:13:d8:6d:5a:1e:a4:7b:8f:f8:
                    d0:c4:e8:c4:72:00:52:b2:65:af:67:36:4f:5a:d4:
                    44:20:e3:de:3c:88:5d:82:00:6f:77:18:c7:d3:cf:
                    d1:f2:e2:79:47:8e:24:f3:db:5d:5e:d9:80:c9:fb:
                    73:aa:1d:7c:96:85:cd:fb:93:5a:3b:a1:d9:b4:df:
                    db:9b:ee:82:9e:38:82:3d:a1:a8:eb:74:8f:f6:ce:
                    a1:3e:b0:d8:95:1a:6f:2c:31:a0:6a:a9:72:83:74:
                    42:71:d0:e1:ae:63:20:75:a4:02:64:b1:a2:62:5b:
                    4e:2f:65:40:8a:cc:84:65:c8:7d:7e:08:ea:17:df:
                    99:c8:0e:d8:ac:cf:20:2f:e4:fc:c5:17:5d:ee:0a:
                    ea:bd:23:01:78:99:f1:21:02:ed:5e:50:94:23:d1:
                    ce:7c:f5:63:1c:6e:b3:1e:d5:af:99:a8:e1:d4:11:
                    52:f5:8a:2f:5a:ea:67:0e:14:1e:2e:5c:96:9d:04:
                    c1:83:ae:8a:2e:01:6e:0e:97:c1:b7:08:b5:93:8d:
                    33:6b:ad:65:9d:e4:da:8e:68:68:b8:ec:be:03:e1:
                    55:e1:55:ea:b2:66:08:7e:9e:a4:f2:93:66:0e:cf:
                    84:ed
                Exponent: 65537 (0x10001)
    Signature Algorithm: sha256WithRSAEncryption
         29:82:cf:2b:88:e4:84:54:1a:4a:5c:71:14:ee:fc:c0:d8:3c:
         2f:63:77:86:66:55:c3:90:a1:9e:a3:84:9e:a5:27:cb:3c:b0:
         1e:43:11:96:1a:61:2f:88:32:8c:7c:a2:cb:6f:72:cd:3c:e8:
         76:28:6e:3c:b8:48:b1:39:aa:1b:c3:17:17:34:52:bb:e7:d0:
         99:85:e6:7c:a0:ae:b3:c9:78:6f:c3:02:67:54:14:55:7c:ac:
         4c:25:c7:79:57:ee:24:5a:89:ed:fe:bf:ee:bb:ca:fa:f4:02:
         06:df:a2:5c:21:00:88:97:42:35:3a:13:30:33:d0:42:d2:ff:
         29:94:1a:fc:15:b1:e2:2a:ff:fd:3f:d3:9f:af:16:a4:07:7d:
         a5:89:fc:c3:d0:fb:c6:d5:d2:3d:47:62:49:a7:bf:09:32:23:
         ec:59:86:04:b8:54:84:62:7e:ba:04:5b:20:1a:81:30:aa:b8:
         6d:01:08:c5:1c:3b:40:7d:7d:df:25:08:00:bd:8e:54:bc:7a:
         d4:88:91:fc:bd:7e:bc:01:3d:c7:4b:bf:d4:e4:11:c3:70:ce:
         4d:6c:ad:61:2f:85:b6:bf:be:e1:58:ae:0a:6c:cf:94:d6:cf:
         33:d7:45:b7:fa:3c:ff:44:0c:3a:66:68:6a:a1:66:d9:90:fd:
         73:0c:1c:3a
-----BEGIN CERTIFICATE-----
MIIDKDCCAhACCGjdI0wjihFjMA0GCSqGSIb3DQEBCwUAME4xCzAJBgNVBAYTAkVT
MQswCQYDVQQIDAJWSTENMAsGA1UECgwERklTUzESMBAGA1UECwwJU2VndXJpZGFk
MQ8wDQYDVQQDDAZTZWN1SUQwHhcNMTYwMzA4MTgwNDAwWhcNMTcwMzA4MTgwNDAw
WjBfMQswCQYDVQQGEwJFUzELMAkGA1UECAwCVkkxDTALBgNVBAoMBEZJU1MxCjAI
BgNVBAsMAUExFjAUBgNVBAMMDXd3dy5zcmRzaS5sYWIxEDAOBgkqhkiG9w0BCQEW
AWEwggEiMA0GCSqGSIb3DQEBAQUAA4IBDwAwggEKAoIBAQCvceHtbTT6mfTCflE0
aSp2AcmqYxPYbVoepHuP+NDE6MRyAFKyZa9nNk9a1EQg4948iF2CAG93GMfTz9Hy
4nlHjiTz211e2YDJ+3OqHXyWhc37k1o7odm039ub7oKeOII9oajrdI/2zqE+sNiV
Gm8sMaBqqXKDdEJx0OGuYyB1pAJksaJiW04vZUCKzIRlyH1+COoX35nIDtiszyAv
5PzFF13uCuq9IwF4mfEhAu1eUJQj0c589WMcbrMe1a+ZqOHUEVL1ii9a6mcOFB4u
XJadBMGDroouAW4Ol8G3CLWTjTNrrWWd5NqOaGi47L4D4VXhVeqyZgh+nqTyk2YO
z4TtAgMBAAEwDQYJKoZIhvcNAQELBQADggEBACmCzyuI5IRUGkpccRTu/MDYPC9j
d4ZmVcOQoZ6jhJ6lJ8s8sB5DEZYaYS+IMox8ostvcs086HYobjy4SLE5qhvDFxc0
Urvn0JmF5nygrrPJeG/DAmdUFFV8rEwlx3lX7iRaie3+v+67yvr0AgbfolwhAIiX
QjU6EzAz0ELS/ymUGvwVseIq//0/05+vFqQHfaWJ/MPQ+8bV0j1HYkmnvwkyI+xZ
hgS4VIRifroEWyAagTCquG0BCMUcO0B9fd8lCAC9jlS8etSIkfy9frwBPcdLv9Tk
EcNwzk1srWEvhba/vuFYrgpsz5TWzzPXRbf6PP9EDDpmaGqhZtmQ/XMMHDo=
-----END CERTIFICATE-----
