Certificate:
    Data:
        Version: 3 (0x2)
        Serial Number: 7556234559718297953 (0x68dd234c238a1161)
    Signature Algorithm: sha256WithRSAEncryption
        Issuer: C=ES, ST=VI, O=FISS, OU=Seguridad, CN=SecuID
        Validity
            Not Before: Mar  9 02:06:02 2016 GMT
            Not After : Mar  9 02:06:02 2017 GMT
        Subject: C=ES, ST=VI, O=FISS, OU=A, CN=www.srdsi.lab/emailAddress=a@a.com
        Subject Public Key Info:
            Public Key Algorithm: rsaEncryption
                Public-Key: (2048 bit)
                Modulus:
                    00:af:71:e1:ed:6d:34:fa:99:f4:c2:7e:51:34:69:
                    2a:76:01:c9:aa:63:13:d8:6d:5a:1e:a4:7b:8f:f8:
                    d0:c4:e8:c4:72:00:52:b2:65:af:67:36:4f:5a:d4:
                    44:20:e3:de:3c:88:5d:82:00:6f:77:18:c7:d3:cf:
                    d1:f2:e2:79:47:8e:24:f3:db:5d:5e:d9:80:c9:fb:
                    73:aa:1d:7c:96:85:cd:fb:93:5a:3b:a1:d9:b4:df:
                    db:9b:ee:82:9e:38:82:3d:a1:a8:eb:74:8f:f6:ce:
                    a1:3e:b0:d8:95:1a:6f:2c:31:a0:6a:a9:72:83:74:
                    42:71:d0:e1:ae:63:20:75:a4:02:64:b1:a2:62:5b:
                    4e:2f:65:40:8a:cc:84:65:c8:7d:7e:08:ea:17:df:
                    99:c8:0e:d8:ac:cf:20:2f:e4:fc:c5:17:5d:ee:0a:
                    ea:bd:23:01:78:99:f1:21:02:ed:5e:50:94:23:d1:
                    ce:7c:f5:63:1c:6e:b3:1e:d5:af:99:a8:e1:d4:11:
                    52:f5:8a:2f:5a:ea:67:0e:14:1e:2e:5c:96:9d:04:
                    c1:83:ae:8a:2e:01:6e:0e:97:c1:b7:08:b5:93:8d:
                    33:6b:ad:65:9d:e4:da:8e:68:68:b8:ec:be:03:e1:
                    55:e1:55:ea:b2:66:08:7e:9e:a4:f2:93:66:0e:cf:
                    84:ed
                Exponent: 65537 (0x10001)
        X509v3 extensions:
            Authority Information Access: 
                CA Issuers - URI:http://ca-root.srdsi.lab/ca-root.crt
                OCSP - URI:http://ocsp.srdsi.lab:50000

            X509v3 Authority Key Identifier: 
                keyid:CF:42:10:F1:89:2B:52:2C:FD:0A:6B:11:5D:0B:25:65:82:7D:D9:96

            X509v3 Basic Constraints: critical
                CA:FALSE
            X509v3 CRL Distribution Points: 

                Full Name:
                  URI:http://ca-root.srdsi.lab/ca-root.crl

            X509v3 Extended Key Usage: 
                TLS Web Client Authentication
            X509v3 Key Usage: critical
                Digital Signature
            X509v3 Subject Key Identifier: 
                80:63:1B:56:42:AD:69:B9:C6:CB:D0:12:2D:49:6B:DD:E7:6F:C7:E7
    Signature Algorithm: sha256WithRSAEncryption
         6f:9f:b4:57:6b:1c:b1:d5:83:64:d7:dd:97:b7:81:55:e6:12:
         7b:78:a2:18:67:5a:af:b5:3b:45:2f:93:27:1f:a3:c4:b8:05:
         f7:a5:7a:a2:90:98:57:ed:60:ad:66:a7:9a:16:23:df:ba:e9:
         c4:ac:69:ec:3f:52:12:93:82:43:9f:c2:7c:78:4b:51:ab:7c:
         a5:02:89:1c:d8:c2:c1:9f:33:1a:dc:55:3c:74:a1:7d:21:3f:
         a6:16:56:0c:b3:69:a6:8a:89:5a:1d:b4:90:23:ac:1e:be:72:
         1b:71:ee:95:52:28:93:78:fd:92:0e:1a:22:0d:a0:4c:19:d0:
         56:32:fb:33:17:d5:69:df:28:cc:d3:ee:01:90:db:dd:9e:a5:
         92:84:d6:b1:52:bc:6e:5f:0b:23:28:37:04:65:bd:61:dd:2b:
         4b:6d:ce:b5:71:da:61:ab:07:a8:73:71:e9:c1:0c:80:ba:6b:
         42:15:7e:50:bd:26:b2:86:8b:5b:ca:3e:ab:12:30:ea:79:61:
         81:df:45:62:c0:52:d2:b8:65:65:e5:cf:b0:2f:e4:63:b0:60:
         ca:65:3b:dd:bf:0b:4d:42:cb:2e:38:37:3a:d4:5d:30:e0:cc:
         80:ab:aa:84:41:c7:1b:3b:d1:81:f3:6e:d9:35:68:26:ab:38:
         9f:f2:85:49
-----BEGIN CERTIFICATE-----
MIIEUDCCAzigAwIBAgIIaN0jTCOKEWEwDQYJKoZIhvcNAQELBQAwTjELMAkGA1UE
BhMCRVMxCzAJBgNVBAgMAlZJMQ0wCwYDVQQKDARGSVNTMRIwEAYDVQQLDAlTZWd1
cmlkYWQxDzANBgNVBAMMBlNlY3VJRDAeFw0xNjAzMDkwMjA2MDJaFw0xNzAzMDkw
MjA2MDJaMGUxCzAJBgNVBAYTAkVTMQswCQYDVQQIDAJWSTENMAsGA1UECgwERklT
UzEKMAgGA1UECwwBQTEWMBQGA1UEAwwNd3d3LnNyZHNpLmxhYjEWMBQGCSqGSIb3
DQEJARYHYUBhLmNvbTCCASIwDQYJKoZIhvcNAQEBBQADggEPADCCAQoCggEBAK9x
4e1tNPqZ9MJ+UTRpKnYByapjE9htWh6ke4/40MToxHIAUrJlr2c2T1rURCDj3jyI
XYIAb3cYx9PP0fLieUeOJPPbXV7ZgMn7c6odfJaFzfuTWjuh2bTf25vugp44gj2h
qOt0j/bOoT6w2JUabywxoGqpcoN0QnHQ4a5jIHWkAmSxomJbTi9lQIrMhGXIfX4I
6hffmcgO2KzPIC/k/MUXXe4K6r0jAXiZ8SEC7V5QlCPRznz1Yxxusx7Vr5mo4dQR
UvWKL1rqZw4UHi5clp0EwYOuii4Bbg6XwbcItZONM2utZZ3k2o5oaLjsvgPhVeFV
6rJmCH6epPKTZg7PhO0CAwEAAaOCARkwggEVMGkGCCsGAQUFBwEBBF0wWzAwBggr
BgEFBQcwAoYkaHR0cDovL2NhLXJvb3Quc3Jkc2kubGFiL2NhLXJvb3QuY3J0MCcG
CCsGAQUFBzABhhtodHRwOi8vb2NzcC5zcmRzaS5sYWI6NTAwMDAwHwYDVR0jBBgw
FoAUz0IQ8YkrUiz9CmsRXQslZYJ92ZYwDAYDVR0TAQH/BAIwADA1BgNVHR8ELjAs
MCqgKKAmhiRodHRwOi8vY2Etcm9vdC5zcmRzaS5sYWIvY2Etcm9vdC5jcmwwEwYD
VR0lBAwwCgYIKwYBBQUHAwIwDgYDVR0PAQH/BAQDAgeAMB0GA1UdDgQWBBSAYxtW
Qq1pucbL0BItSWvd52/H5zANBgkqhkiG9w0BAQsFAAOCAQEAb5+0V2scsdWDZNfd
l7eBVeYSe3iiGGdar7U7RS+TJx+jxLgF96V6opCYV+1grWanmhYj37rpxKxp7D9S
EpOCQ5/CfHhLUat8pQKJHNjCwZ8zGtxVPHShfSE/phZWDLNppoqJWh20kCOsHr5y
G3HulVIok3j9kg4aIg2gTBnQVjL7MxfVad8ozNPuAZDb3Z6lkoTWsVK8bl8LIyg3
BGW9Yd0rS23OtXHaYasHqHNx6cEMgLprQhV+UL0msoaLW8o+qxIw6nlhgd9FYsBS
0rhlZeXPsC/kY7BgymU73b8LTULLLjg3OtRdMODMgKuqhEHHGzvRgfNu2TVoJqs4
n/KFSQ==
-----END CERTIFICATE-----
