Certificate:
    Data:
        Version: 3 (0x2)
        Serial Number: 7556234559718297947 (0x68dd234c238a115b)
    Signature Algorithm: sha256WithRSAEncryption
        Issuer: C=ES, ST=VI, O=FISS, OU=Seguridad, CN=SecuID
        Validity
            Not Before: Mar  7 18:48:43 2016 GMT
            Not After : Mar  7 18:48:43 2017 GMT
        Subject: C=ES, ST=VI, O=FISS, OU=Seguridad, CN=SecuID
        Subject Public Key Info:
            Public Key Algorithm: rsaEncryption
                Public-Key: (2048 bit)
                Modulus:
                    00:cd:db:84:30:64:d8:dd:c6:58:05:bf:f2:90:f5:
                    3e:2c:d9:c2:bb:6c:1e:6d:f9:c7:cb:f0:c9:79:fb:
                    40:83:36:aa:ab:30:da:fb:a1:de:3a:75:11:01:83:
                    73:c1:9c:f9:16:57:eb:ef:0f:ea:a9:4f:24:90:53:
                    7a:2e:04:a1:e5:fa:16:57:72:e5:2d:34:e5:7f:8b:
                    2c:99:3f:1c:88:8a:f2:d9:c5:da:f8:94:9b:7e:4b:
                    4b:bc:8f:c3:f0:69:8c:8e:39:fb:cb:2f:89:f9:da:
                    6b:6c:44:6b:a8:28:17:31:94:b5:ba:47:b4:1a:08:
                    7f:b5:3e:9e:70:ea:3a:61:1e:2e:d0:b5:35:49:ef:
                    33:6b:4c:72:4b:8b:9b:7e:d0:7d:e5:97:a2:9d:85:
                    a5:55:30:d9:8f:31:c9:6c:63:0f:7e:9c:72:67:b4:
                    66:32:9a:8c:95:84:ec:e0:4f:ac:8a:cd:b7:ff:90:
                    40:3f:81:12:c3:df:f9:c6:f9:74:1c:a0:8f:61:fc:
                    83:ce:8f:f4:37:fe:6d:d9:a5:23:a9:27:85:62:29:
                    fb:94:2e:a6:d7:d2:ba:9c:d4:41:b3:62:a6:8a:35:
                    c4:d9:8a:8a:04:aa:9c:29:72:61:f3:24:4d:fc:22:
                    13:09:04:21:11:15:d5:1c:df:a1:df:ac:09:1e:65:
                    7c:7b
                Exponent: 65537 (0x10001)
        X509v3 extensions:
            Authority Information Access: 
                CA Issuers - URI:http://ca-root.srdsi.lab/ca-root.crt
                OCSP - URI:http://ocsp.srdsi.lab:…num_puerto…

            X509v3 Authority Key Identifier: 
                keyid:CF:42:10:F1:89:2B:52:2C:FD:0A:6B:11:5D:0B:25:65:82:7D:D9:96

            X509v3 Basic Constraints: critical
                CA:FALSE
            X509v3 CRL Distribution Points: 

                Full Name:
                  URI:http://ca-root.srdsi.lab/ca-root.crl

            X509v3 Extended Key Usage: 
                TLS Web Client Authentication
            X509v3 Key Usage: critical
                Digital Signature
            X509v3 Subject Key Identifier: 
                4D:F6:D2:C2:1C:70:66:0B:98:AB:E0:94:94:57:B8:9F:36:6B:6A:B4
    Signature Algorithm: sha256WithRSAEncryption
         b2:f3:b8:28:58:bc:8d:ca:44:98:ae:d7:f8:20:8b:27:a5:ea:
         42:25:69:7d:b7:b9:3a:28:e4:91:51:f0:42:45:53:de:f3:47:
         bc:67:b8:dc:e5:7e:93:2b:fb:bc:e3:ee:0f:c5:4f:66:e4:3e:
         e2:5a:95:51:6a:ce:2a:74:d3:00:03:c7:5a:2a:b7:68:36:d0:
         05:05:c8:38:25:65:82:52:bb:06:7a:7d:f1:c2:56:b2:62:34:
         fb:db:cd:ea:1f:4d:08:60:1b:30:79:83:f7:e3:f5:46:9f:8f:
         01:19:4c:1b:d3:9e:23:01:3e:b7:27:20:1f:35:f0:68:5a:db:
         34:7e:40:fa:37:8d:44:7d:29:d8:a2:58:6e:d8:49:bc:2a:1d:
         94:52:16:43:29:57:05:65:f7:ee:c7:aa:be:88:d3:1f:25:5d:
         95:b9:53:46:d7:8e:be:57:19:6e:49:be:96:5d:9a:a9:cb:51:
         c4:f1:95:d7:5e:89:ea:a6:5c:a1:06:2f:e0:2f:9e:b0:c2:85:
         bd:ca:0b:51:ac:ee:a2:3a:7f:12:f5:84:65:b1:a0:f2:e5:b5:
         e0:f3:df:01:8f:ea:08:eb:24:e7:91:fb:f8:86:79:52:91:1d:
         4f:e0:4a:24:b2:8a:2b:2a:37:7b:29:ab:e3:c9:ac:2e:62:9f:
         38:36:9d:4e
-----BEGIN CERTIFICATE-----
MIIERDCCAyygAwIBAgIIaN0jTCOKEVswDQYJKoZIhvcNAQELBQAwTjELMAkGA1UE
BhMCRVMxCzAJBgNVBAgMAlZJMQ0wCwYDVQQKDARGSVNTMRIwEAYDVQQLDAlTZWd1
cmlkYWQxDzANBgNVBAMMBlNlY3VJRDAeFw0xNjAzMDcxODQ4NDNaFw0xNzAzMDcx
ODQ4NDNaME4xCzAJBgNVBAYTAkVTMQswCQYDVQQIDAJWSTENMAsGA1UECgwERklT
UzESMBAGA1UECwwJU2VndXJpZGFkMQ8wDQYDVQQDDAZTZWN1SUQwggEiMA0GCSqG
SIb3DQEBAQUAA4IBDwAwggEKAoIBAQDN24QwZNjdxlgFv/KQ9T4s2cK7bB5t+cfL
8Ml5+0CDNqqrMNr7od46dREBg3PBnPkWV+vvD+qpTySQU3ouBKHl+hZXcuUtNOV/
iyyZPxyIivLZxdr4lJt+S0u8j8PwaYyOOfvLL4n52mtsRGuoKBcxlLW6R7QaCH+1
Pp5w6jphHi7QtTVJ7zNrTHJLi5t+0H3ll6KdhaVVMNmPMclsYw9+nHJntGYymoyV
hOzgT6yKzbf/kEA/gRLD3/nG+XQcoI9h/IPOj/Q3/m3ZpSOpJ4ViKfuULqbX0rqc
1EGzYqaKNcTZiooEqpwpcmHzJE38IhMJBCERFdUc36HfrAkeZXx7AgMBAAGjggEk
MIIBIDB0BggrBgEFBQcBAQRoMGYwMAYIKwYBBQUHMAKGJGh0dHA6Ly9jYS1yb290
LnNyZHNpLmxhYi9jYS1yb290LmNydDAyBggrBgEFBQcwAYYmaHR0cDovL29jc3Au
c3Jkc2kubGFiOuKApm51bV9wdWVydG/igKYwHwYDVR0jBBgwFoAUz0IQ8YkrUiz9
CmsRXQslZYJ92ZYwDAYDVR0TAQH/BAIwADA1BgNVHR8ELjAsMCqgKKAmhiRodHRw
Oi8vY2Etcm9vdC5zcmRzaS5sYWIvY2Etcm9vdC5jcmwwEwYDVR0lBAwwCgYIKwYB
BQUHAwIwDgYDVR0PAQH/BAQDAgeAMB0GA1UdDgQWBBRN9tLCHHBmC5ir4JSUV7if
NmtqtDANBgkqhkiG9w0BAQsFAAOCAQEAsvO4KFi8jcpEmK7X+CCLJ6XqQiVpfbe5
OijkkVHwQkVT3vNHvGe43OV+kyv7vOPuD8VPZuQ+4lqVUWrOKnTTAAPHWiq3aDbQ
BQXIOCVlglK7Bnp98cJWsmI0+9vN6h9NCGAbMHmD9+P1Rp+PARlMG9OeIwE+tycg
HzXwaFrbNH5A+jeNRH0p2KJYbthJvCodlFIWQylXBWX37seqvojTHyVdlblTRteO
vlcZbkm+ll2aqctRxPGV116J6qZcoQYv4C+esMKFvcoLUazuojp/EvWEZbGg8uW1
4PPfAY/qCOsk55H7+IZ5UpEdT+BKJLKKKyo3eymr48msLmKfODadTg==
-----END CERTIFICATE-----
