Certificate:
    Data:
        Version: 1 (0x0)
        Serial Number: 7556234559718297948 (0x68dd234c238a115c)
    Signature Algorithm: sha256WithRSAEncryption
        Issuer: C=ES, ST=VI, O=FISS, OU=Seguridad, CN=SecuID
        Validity
            Not Before: Mar  8 23:49:31 2016 GMT
            Not After : Mar  8 23:49:31 2017 GMT
        Subject: C=ES, ST=VI, O=FISS, OU=Seguridad, CN=SecuID
        Subject Public Key Info:
            Public Key Algorithm: rsaEncryption
                Public-Key: (2048 bit)
                Modulus:
                    00:ea:b2:d4:09:74:62:27:e6:68:14:44:84:fe:e9:
                    9a:b5:8c:24:7c:96:c6:fa:f7:c3:69:ee:c9:cd:a7:
                    14:f5:d2:53:d4:48:95:0c:aa:cb:44:24:49:76:3f:
                    43:a3:5a:9e:8e:11:bb:8c:ac:46:33:48:db:c6:a2:
                    3e:7f:16:c1:68:f0:27:31:d0:81:0a:74:b1:7a:d8:
                    12:36:88:dc:c0:71:a0:da:d6:98:db:4b:3e:cd:60:
                    bd:bd:22:c8:c1:d5:6e:e3:f9:a3:af:78:f2:83:92:
                    ed:58:db:98:aa:d8:04:a7:49:2e:5a:47:5b:b2:7c:
                    0b:fa:1b:22:1e:0b:bc:02:df:98:54:02:f3:1e:43:
                    85:0f:d8:3d:52:9b:e7:06:33:41:5c:3d:1e:a0:e0:
                    a2:95:de:1b:24:1c:e3:c6:27:c3:3a:7e:18:57:da:
                    49:1e:77:3b:40:82:aa:13:47:ca:33:ef:fa:93:c3:
                    15:c6:29:e7:ae:04:c9:5e:f9:b7:8e:cd:8e:33:e5:
                    65:d7:0c:c7:21:46:8e:c4:81:f3:13:ed:c5:33:7c:
                    e5:07:98:e9:9e:e7:0d:9f:d6:96:5c:ce:ee:69:d5:
                    00:4d:d3:f1:d4:d2:73:25:1d:b7:fe:fc:94:44:34:
                    65:28:da:81:66:e6:e3:ba:55:80:07:c5:1d:b5:1f:
                    13:a1
                Exponent: 65537 (0x10001)
    Signature Algorithm: sha256WithRSAEncryption
         34:92:d8:9d:ce:3f:9e:38:5e:8f:ad:c6:4b:b6:e7:3f:f3:a7:
         33:de:d1:bd:20:61:64:a8:cf:5e:2a:d2:a7:22:24:18:fa:a5:
         a6:1f:ff:3e:4d:6b:1f:d7:73:b4:52:3a:ad:bb:67:30:39:b7:
         cb:08:f7:1f:50:19:97:3b:ba:d0:47:b1:fe:69:d5:5b:89:ed:
         85:fa:bc:b3:f3:bb:23:c2:7b:46:75:f2:d9:27:75:65:50:92:
         f5:60:00:68:c2:a7:0e:58:2b:5c:3c:15:2d:35:21:26:65:62:
         90:db:1b:59:4b:81:8f:52:7a:09:84:02:96:e0:1b:56:e5:dc:
         78:41:a6:76:b8:89:91:a8:16:28:62:8a:fc:9c:66:b7:21:fa:
         6f:9c:b8:79:3e:92:6a:fd:6f:d9:59:7c:f1:45:2b:ec:cd:3c:
         04:26:5e:10:ca:7c:d4:99:0d:94:5d:c0:7b:8c:50:09:59:46:
         6a:09:74:cc:75:69:07:2d:78:d1:7d:7c:25:8c:9d:25:50:13:
         e0:db:3e:54:6d:6d:5e:37:70:88:51:4c:17:91:48:39:18:16:
         a7:0e:54:de:1a:74:1b:d2:41:f7:8b:08:ee:a6:b5:4e:f9:aa:
         0d:42:58:d1:6d:e6:6e:af:34:0a:36:a8:ac:95:d8:52:a2:6b:
         d5:73:2d:9b
-----BEGIN CERTIFICATE-----
MIIDFzCCAf8CCGjdI0wjihFcMA0GCSqGSIb3DQEBCwUAME4xCzAJBgNVBAYTAkVT
MQswCQYDVQQIDAJWSTENMAsGA1UECgwERklTUzESMBAGA1UECwwJU2VndXJpZGFk
MQ8wDQYDVQQDDAZTZWN1SUQwHhcNMTYwMzA4MjM0OTMxWhcNMTcwMzA4MjM0OTMx
WjBOMQswCQYDVQQGEwJFUzELMAkGA1UECAwCVkkxDTALBgNVBAoMBEZJU1MxEjAQ
BgNVBAsMCVNlZ3VyaWRhZDEPMA0GA1UEAwwGU2VjdUlEMIIBIjANBgkqhkiG9w0B
AQEFAAOCAQ8AMIIBCgKCAQEA6rLUCXRiJ+ZoFESE/umatYwkfJbG+vfDae7JzacU
9dJT1EiVDKrLRCRJdj9Do1qejhG7jKxGM0jbxqI+fxbBaPAnMdCBCnSxetgSNojc
wHGg2taY20s+zWC9vSLIwdVu4/mjr3jyg5LtWNuYqtgEp0kuWkdbsnwL+hsiHgu8
At+YVALzHkOFD9g9UpvnBjNBXD0eoOCild4bJBzjxifDOn4YV9pJHnc7QIKqE0fK
M+/6k8MVxinnrgTJXvm3js2OM+Vl1wzHIUaOxIHzE+3FM3zlB5jpnucNn9aWXM7u
adUATdPx1NJzJR23/vyURDRlKNqBZubjulWAB8UdtR8ToQIDAQABMA0GCSqGSIb3
DQEBCwUAA4IBAQA0ktidzj+eOF6PrcZLtuc/86cz3tG9IGFkqM9eKtKnIiQY+qWm
H/8+TWsf13O0Ujqtu2cwObfLCPcfUBmXO7rQR7H+adVbie2F+ryz87sjwntGdfLZ
J3VlUJL1YABowqcOWCtcPBUtNSEmZWKQ2xtZS4GPUnoJhAKW4BtW5dx4QaZ2uImR
qBYoYor8nGa3IfpvnLh5PpJq/W/ZWXzxRSvszTwEJl4QynzUmQ2UXcB7jFAJWUZq
CXTMdWkHLXjRfXwljJ0lUBPg2z5UbW1eN3CIUUwXkUg5GBanDlTeGnQb0kH3iwju
prVO+aoNQljRbeZurzQKNqisldhSomvVcy2b
-----END CERTIFICATE-----
